ARM GAS  C:\Users\Sausy\AppData\Local\Temp\ccLQi9zI.s 			page 1


   1              		.cpu cortex-m0
   2              		.fpu softvfp
   3              		.eabi_attribute 20, 1
   4              		.eabi_attribute 21, 1
   5              		.eabi_attribute 23, 3
   6              		.eabi_attribute 24, 1
   7              		.eabi_attribute 25, 1
   8              		.eabi_attribute 26, 1
   9              		.eabi_attribute 30, 6
  10              		.eabi_attribute 34, 0
  11              		.eabi_attribute 18, 4
  12              		.code	16
  13              		.file	"CapSense_CSD_CSHL.c"
  14              		.text
  15              	.Ltext0:
  16              		.cfi_sections	.debug_frame
  17              		.comm	CapSense_CSD_rawFilterData1,2,4
  18              		.global	CapSense_CSD_sensorBaseline
  19              		.bss
  20              		.align	2
  21              		.type	CapSense_CSD_sensorBaseline, %object
  22              		.size	CapSense_CSD_sensorBaseline, 2
  23              	CapSense_CSD_sensorBaseline:
  24 0000 0000     		.space	2
  25              		.global	CapSense_CSD_sensorBaselineLow
  26 0002 0000     		.align	2
  27              		.type	CapSense_CSD_sensorBaselineLow, %object
  28              		.size	CapSense_CSD_sensorBaselineLow, 1
  29              	CapSense_CSD_sensorBaselineLow:
  30 0004 00       		.space	1
  31              		.global	CapSense_CSD_sensorSignal
  32 0005 000000   		.align	2
  33              		.type	CapSense_CSD_sensorSignal, %object
  34              		.size	CapSense_CSD_sensorSignal, 2
  35              	CapSense_CSD_sensorSignal:
  36 0008 0000     		.space	2
  37              		.global	CapSense_CSD_sensorOnMask
  38 000a 0000     		.align	2
  39              		.type	CapSense_CSD_sensorOnMask, %object
  40              		.size	CapSense_CSD_sensorOnMask, 1
  41              	CapSense_CSD_sensorOnMask:
  42 000c 00       		.space	1
  43              		.comm	CapSense_CSD_lowBaselineResetCnt,1,4
  44              		.global	CapSense_CSD_lowBaselineReset
  45              		.data
  46              		.align	2
  47              		.type	CapSense_CSD_lowBaselineReset, %object
  48              		.size	CapSense_CSD_lowBaselineReset, 1
  49              	CapSense_CSD_lowBaselineReset:
  50 0000 05       		.byte	5
  51              		.global	CapSense_CSD_enableRawFilters
  52              		.type	CapSense_CSD_enableRawFilters, %object
  53              		.size	CapSense_CSD_enableRawFilters, 1
  54              	CapSense_CSD_enableRawFilters:
  55 0001 01       		.byte	1
  56              		.global	CapSense_CSD_fingerThreshold
  57 0002 0000     		.section	.rodata
ARM GAS  C:\Users\Sausy\AppData\Local\Temp\ccLQi9zI.s 			page 2


  58              		.align	2
  59              		.type	CapSense_CSD_fingerThreshold, %object
  60              		.size	CapSense_CSD_fingerThreshold, 2
  61              	CapSense_CSD_fingerThreshold:
  62 0000 3200     		.short	50
  63              		.global	CapSense_CSD_noiseThreshold
  64 0002 0000     		.align	2
  65              		.type	CapSense_CSD_noiseThreshold, %object
  66              		.size	CapSense_CSD_noiseThreshold, 2
  67              	CapSense_CSD_noiseThreshold:
  68 0004 0300     		.short	3
  69              		.global	CapSense_CSD_hysteresis
  70 0006 0000     		.align	2
  71              		.type	CapSense_CSD_hysteresis, %object
  72              		.size	CapSense_CSD_hysteresis, 2
  73              	CapSense_CSD_hysteresis:
  74 0008 0A00     		.short	10
  75              		.global	CapSense_CSD_debounce
  76 000a 0000     		.align	2
  77              		.type	CapSense_CSD_debounce, %object
  78              		.size	CapSense_CSD_debounce, 1
  79              	CapSense_CSD_debounce:
  80 000c 02       		.byte	2
  81              		.bss
  82 000d 000000   		.align	2
  83              	CapSense_CSD_debounceCounter:
  84 0010 0000     		.space	2
  85              		.global	CapSense_CSD_rawDataIndex
  86 0012 0000     		.section	.rodata
  87 000d 000000   		.align	2
  88              		.type	CapSense_CSD_rawDataIndex, %object
  89              		.size	CapSense_CSD_rawDataIndex, 1
  90              	CapSense_CSD_rawDataIndex:
  91 0010 00       		.space	1
  92              		.global	CapSense_CSD_numberOfSensors
  93 0011 000000   		.align	2
  94              		.type	CapSense_CSD_numberOfSensors, %object
  95              		.size	CapSense_CSD_numberOfSensors, 1
  96              	CapSense_CSD_numberOfSensors:
  97 0014 01       		.byte	1
  98 0015 000000   		.section	.text.CapSense_CSD_BaseInit,"ax",%progbits
  99              		.align	2
 100              		.global	CapSense_CSD_BaseInit
 101              		.code	16
 102              		.thumb_func
 103              		.type	CapSense_CSD_BaseInit, %function
 104              	CapSense_CSD_BaseInit:
 105              	.LFB33:
 106              		.file 1 ".\\Generated_Source\\PSoC4\\CapSense_CSD_CSHL.c"
   1:.\Generated_Source\PSoC4/CapSense_CSD_CSHL.c **** /*******************************************************************************
   2:.\Generated_Source\PSoC4/CapSense_CSD_CSHL.c **** * File Name: CapSense_CSD_CSHL.c
   3:.\Generated_Source\PSoC4/CapSense_CSD_CSHL.c **** * Version 2.10
   4:.\Generated_Source\PSoC4/CapSense_CSD_CSHL.c **** *
   5:.\Generated_Source\PSoC4/CapSense_CSD_CSHL.c **** * Description:
   6:.\Generated_Source\PSoC4/CapSense_CSD_CSHL.c **** *  This file provides the source code to the High Level APIs for the CapSesne
   7:.\Generated_Source\PSoC4/CapSense_CSD_CSHL.c **** *  CSD component.
   8:.\Generated_Source\PSoC4/CapSense_CSD_CSHL.c **** *
ARM GAS  C:\Users\Sausy\AppData\Local\Temp\ccLQi9zI.s 			page 3


   9:.\Generated_Source\PSoC4/CapSense_CSD_CSHL.c **** * Note:
  10:.\Generated_Source\PSoC4/CapSense_CSD_CSHL.c **** *
  11:.\Generated_Source\PSoC4/CapSense_CSD_CSHL.c **** ********************************************************************************
  12:.\Generated_Source\PSoC4/CapSense_CSD_CSHL.c **** * Copyright 2014, Cypress Semiconductor Corporation.  All rights reserved.
  13:.\Generated_Source\PSoC4/CapSense_CSD_CSHL.c **** * You may use this file only in accordance with the license, terms, conditions,
  14:.\Generated_Source\PSoC4/CapSense_CSD_CSHL.c **** * disclaimers, and limitations in the end user license agreement accompanying
  15:.\Generated_Source\PSoC4/CapSense_CSD_CSHL.c **** * the software package with which this file was provided.
  16:.\Generated_Source\PSoC4/CapSense_CSD_CSHL.c **** *******************************************************************************/
  17:.\Generated_Source\PSoC4/CapSense_CSD_CSHL.c **** 
  18:.\Generated_Source\PSoC4/CapSense_CSD_CSHL.c **** #include "CapSense_CSD_CSHL.h"
  19:.\Generated_Source\PSoC4/CapSense_CSD_CSHL.c **** #include "CapSense_CSD_PVT.h"
  20:.\Generated_Source\PSoC4/CapSense_CSD_CSHL.c **** 
  21:.\Generated_Source\PSoC4/CapSense_CSD_CSHL.c **** /* SmartSense functions */
  22:.\Generated_Source\PSoC4/CapSense_CSD_CSHL.c **** #if (CapSense_CSD_TUNING_METHOD == CapSense_CSD__TUNING_AUTO)
  23:.\Generated_Source\PSoC4/CapSense_CSD_CSHL.c ****     extern void CapSense_CSD_UpdateThresholds(uint32 sensor);
  24:.\Generated_Source\PSoC4/CapSense_CSD_CSHL.c **** #endif /* (CapSense_CSD_TUNING_METHOD == CapSense_CSD__TUNING_AUTO) */
  25:.\Generated_Source\PSoC4/CapSense_CSD_CSHL.c **** 
  26:.\Generated_Source\PSoC4/CapSense_CSD_CSHL.c **** /* Storage of filters data */
  27:.\Generated_Source\PSoC4/CapSense_CSD_CSHL.c **** #if ( (0u != (CapSense_CSD_RAW_FILTER_MASK & CapSense_CSD_MEDIAN_FILTER)) || \
  28:.\Generated_Source\PSoC4/CapSense_CSD_CSHL.c ****       (0u != (CapSense_CSD_RAW_FILTER_MASK & CapSense_CSD_AVERAGING_FILTER)) )
  29:.\Generated_Source\PSoC4/CapSense_CSD_CSHL.c **** 
  30:.\Generated_Source\PSoC4/CapSense_CSD_CSHL.c ****     uint16 CapSense_CSD_rawFilterData1[CapSense_CSD_TOTAL_SENSOR_COUNT];
  31:.\Generated_Source\PSoC4/CapSense_CSD_CSHL.c ****     uint16 CapSense_CSD_rawFilterData2[CapSense_CSD_TOTAL_SENSOR_COUNT];
  32:.\Generated_Source\PSoC4/CapSense_CSD_CSHL.c **** 
  33:.\Generated_Source\PSoC4/CapSense_CSD_CSHL.c **** #elif ( (0u != (CapSense_CSD_RAW_FILTER_MASK & CapSense_CSD_IIR2_FILTER))   || \
  34:.\Generated_Source\PSoC4/CapSense_CSD_CSHL.c ****         (0u != (CapSense_CSD_RAW_FILTER_MASK & CapSense_CSD_IIR4_FILTER))   || \
  35:.\Generated_Source\PSoC4/CapSense_CSD_CSHL.c ****         (0u != (CapSense_CSD_RAW_FILTER_MASK & CapSense_CSD_JITTER_FILTER)) || \
  36:.\Generated_Source\PSoC4/CapSense_CSD_CSHL.c ****         (0u != (CapSense_CSD_RAW_FILTER_MASK & CapSense_CSD_IIR8_FILTER))   || \
  37:.\Generated_Source\PSoC4/CapSense_CSD_CSHL.c ****         (0u != (CapSense_CSD_RAW_FILTER_MASK & CapSense_CSD_IIR16_FILTER)) )
  38:.\Generated_Source\PSoC4/CapSense_CSD_CSHL.c ****         
  39:.\Generated_Source\PSoC4/CapSense_CSD_CSHL.c ****     uint16 CapSense_CSD_rawFilterData1[CapSense_CSD_TOTAL_SENSOR_COUNT];
  40:.\Generated_Source\PSoC4/CapSense_CSD_CSHL.c **** #endif  /* ( (CapSense_CSD_RAW_FILTER_MASK & CapSense_CSD_MEDIAN_FILTER) || \
  41:.\Generated_Source\PSoC4/CapSense_CSD_CSHL.c ****         *    (CapSense_CSD_RAW_FILTER_MASK & CapSense_CSD_AVERAGING_FILTER) )
  42:.\Generated_Source\PSoC4/CapSense_CSD_CSHL.c ****         */
  43:.\Generated_Source\PSoC4/CapSense_CSD_CSHL.c **** 
  44:.\Generated_Source\PSoC4/CapSense_CSD_CSHL.c **** extern uint16 CapSense_CSD_sensorRaw[CapSense_CSD_TOTAL_SENSOR_COUNT];
  45:.\Generated_Source\PSoC4/CapSense_CSD_CSHL.c **** extern uint8 CapSense_CSD_sensorEnableMask[CapSense_CSD_TOTAL_SENSOR_MASK];
  46:.\Generated_Source\PSoC4/CapSense_CSD_CSHL.c **** extern const uint8 CapSense_CSD_widgetNumber[CapSense_CSD_TOTAL_SENSOR_COUNT];
  47:.\Generated_Source\PSoC4/CapSense_CSD_CSHL.c **** 
  48:.\Generated_Source\PSoC4/CapSense_CSD_CSHL.c **** #if (CapSense_CSD_TUNING_METHOD != CapSense_CSD__TUNING_NONE)
  49:.\Generated_Source\PSoC4/CapSense_CSD_CSHL.c **** 	extern uint32 CapSense_CSD_widgetResolution[CapSense_CSD_RESOLUTIONS_TBL_SIZE];	
  50:.\Generated_Source\PSoC4/CapSense_CSD_CSHL.c **** #endif /* (CapSense_CSD_TUNING_METHOD != CapSense_CSD__TUNING_NONE) */
  51:.\Generated_Source\PSoC4/CapSense_CSD_CSHL.c **** 
  52:.\Generated_Source\PSoC4/CapSense_CSD_CSHL.c **** uint16 CapSense_CSD_sensorBaseline[CapSense_CSD_TOTAL_SENSOR_COUNT] = {0u};
  53:.\Generated_Source\PSoC4/CapSense_CSD_CSHL.c **** uint8 CapSense_CSD_sensorBaselineLow[CapSense_CSD_TOTAL_SENSOR_COUNT] = {0u};
  54:.\Generated_Source\PSoC4/CapSense_CSD_CSHL.c **** uint16 CapSense_CSD_sensorSignal[CapSense_CSD_TOTAL_SENSOR_COUNT] = {0u};
  55:.\Generated_Source\PSoC4/CapSense_CSD_CSHL.c **** uint8 CapSense_CSD_sensorOnMask[CapSense_CSD_TOTAL_SENSOR_MASK] = {0u};
  56:.\Generated_Source\PSoC4/CapSense_CSD_CSHL.c **** 
  57:.\Generated_Source\PSoC4/CapSense_CSD_CSHL.c **** uint8 CapSense_CSD_lowBaselineResetCnt[CapSense_CSD_TOTAL_SENSOR_COUNT];
  58:.\Generated_Source\PSoC4/CapSense_CSD_CSHL.c **** uint8 CapSense_CSD_lowBaselineReset[CapSense_CSD_TOTAL_SENSOR_COUNT] = {
  59:.\Generated_Source\PSoC4/CapSense_CSD_CSHL.c ****     5u, 
  60:.\Generated_Source\PSoC4/CapSense_CSD_CSHL.c **** };
  61:.\Generated_Source\PSoC4/CapSense_CSD_CSHL.c **** 
  62:.\Generated_Source\PSoC4/CapSense_CSD_CSHL.c **** 
  63:.\Generated_Source\PSoC4/CapSense_CSD_CSHL.c **** 
  64:.\Generated_Source\PSoC4/CapSense_CSD_CSHL.c **** #if (CapSense_CSD_TUNING_METHOD == CapSense_CSD__TUNING_AUTO)
  65:.\Generated_Source\PSoC4/CapSense_CSD_CSHL.c **** 	extern CapSense_CSD_CONFIG_TYPE_P4_v2_10 CapSense_CSD_config;
ARM GAS  C:\Users\Sausy\AppData\Local\Temp\ccLQi9zI.s 			page 4


  66:.\Generated_Source\PSoC4/CapSense_CSD_CSHL.c **** #endif  /* (CapSense_CSD_TUNING_METHOD == CapSense_CSD__TUNING_AUTO) */
  67:.\Generated_Source\PSoC4/CapSense_CSD_CSHL.c **** 
  68:.\Generated_Source\PSoC4/CapSense_CSD_CSHL.c **** #if (CapSense_CSD_RAW_FILTER_MASK != 0u)
  69:.\Generated_Source\PSoC4/CapSense_CSD_CSHL.c **** uint8 CapSense_CSD_enableRawFilters = CapSense_CSD_RAW_FILTERS_ENABLED;
  70:.\Generated_Source\PSoC4/CapSense_CSD_CSHL.c **** #endif  /* (CapSense_CSD_RAW_FILTER_MASK != 0u) */
  71:.\Generated_Source\PSoC4/CapSense_CSD_CSHL.c **** 
  72:.\Generated_Source\PSoC4/CapSense_CSD_CSHL.c **** /* Generated by Customizer */
  73:.\Generated_Source\PSoC4/CapSense_CSD_CSHL.c **** const uint16 CapSense_CSD_fingerThreshold[] = {
  74:.\Generated_Source\PSoC4/CapSense_CSD_CSHL.c ****     50u, 
  75:.\Generated_Source\PSoC4/CapSense_CSD_CSHL.c **** };
  76:.\Generated_Source\PSoC4/CapSense_CSD_CSHL.c **** 
  77:.\Generated_Source\PSoC4/CapSense_CSD_CSHL.c **** const uint16 CapSense_CSD_noiseThreshold[] = {
  78:.\Generated_Source\PSoC4/CapSense_CSD_CSHL.c ****     3u, 
  79:.\Generated_Source\PSoC4/CapSense_CSD_CSHL.c **** };
  80:.\Generated_Source\PSoC4/CapSense_CSD_CSHL.c **** 
  81:.\Generated_Source\PSoC4/CapSense_CSD_CSHL.c **** const uint16 CapSense_CSD_hysteresis[] = {
  82:.\Generated_Source\PSoC4/CapSense_CSD_CSHL.c ****     10u, 
  83:.\Generated_Source\PSoC4/CapSense_CSD_CSHL.c **** };
  84:.\Generated_Source\PSoC4/CapSense_CSD_CSHL.c **** 
  85:.\Generated_Source\PSoC4/CapSense_CSD_CSHL.c **** const uint8 CapSense_CSD_debounce[] = {
  86:.\Generated_Source\PSoC4/CapSense_CSD_CSHL.c ****     2u, 
  87:.\Generated_Source\PSoC4/CapSense_CSD_CSHL.c **** };
  88:.\Generated_Source\PSoC4/CapSense_CSD_CSHL.c **** 
  89:.\Generated_Source\PSoC4/CapSense_CSD_CSHL.c **** static uint8 CapSense_CSD_debounceCounter[] = {
  90:.\Generated_Source\PSoC4/CapSense_CSD_CSHL.c ****     0u, 0u, 
  91:.\Generated_Source\PSoC4/CapSense_CSD_CSHL.c **** };
  92:.\Generated_Source\PSoC4/CapSense_CSD_CSHL.c **** 
  93:.\Generated_Source\PSoC4/CapSense_CSD_CSHL.c **** const uint8 CapSense_CSD_rawDataIndex[] = {
  94:.\Generated_Source\PSoC4/CapSense_CSD_CSHL.c ****     0u, /* ProximitySensor0__PROX */
  95:.\Generated_Source\PSoC4/CapSense_CSD_CSHL.c **** };
  96:.\Generated_Source\PSoC4/CapSense_CSD_CSHL.c **** 
  97:.\Generated_Source\PSoC4/CapSense_CSD_CSHL.c **** const uint8 CapSense_CSD_numberOfSensors[] = {
  98:.\Generated_Source\PSoC4/CapSense_CSD_CSHL.c ****     1u, /* ProximitySensor0__PROX */
  99:.\Generated_Source\PSoC4/CapSense_CSD_CSHL.c **** };
 100:.\Generated_Source\PSoC4/CapSense_CSD_CSHL.c **** 
 101:.\Generated_Source\PSoC4/CapSense_CSD_CSHL.c **** 
 102:.\Generated_Source\PSoC4/CapSense_CSD_CSHL.c **** 
 103:.\Generated_Source\PSoC4/CapSense_CSD_CSHL.c **** 
 104:.\Generated_Source\PSoC4/CapSense_CSD_CSHL.c **** /*******************************************************************************
 105:.\Generated_Source\PSoC4/CapSense_CSD_CSHL.c **** * Function Name: CapSense_CSD_BaseInit
 106:.\Generated_Source\PSoC4/CapSense_CSD_CSHL.c **** ********************************************************************************
 107:.\Generated_Source\PSoC4/CapSense_CSD_CSHL.c **** *
 108:.\Generated_Source\PSoC4/CapSense_CSD_CSHL.c **** * Summary:
 109:.\Generated_Source\PSoC4/CapSense_CSD_CSHL.c **** *  Loads the CapSense_CSD_sensorBaseline[sensor] array element with an 
 110:.\Generated_Source\PSoC4/CapSense_CSD_CSHL.c **** *  initial value which is equal to the raw count value. 
 111:.\Generated_Source\PSoC4/CapSense_CSD_CSHL.c **** *  Resets to zero CapSense_CSD_sensorBaselineLow[sensor] and 
 112:.\Generated_Source\PSoC4/CapSense_CSD_CSHL.c **** *  CapSense_CSD_sensorSignal[sensor] array element.
 113:.\Generated_Source\PSoC4/CapSense_CSD_CSHL.c **** *  Loads the CapSense_CSD_rawFilterData2[sensor] and 
 114:.\Generated_Source\PSoC4/CapSense_CSD_CSHL.c **** *  CapSense_CSD_rawFilterData2[sensor] array element with an 
 115:.\Generated_Source\PSoC4/CapSense_CSD_CSHL.c **** *  initial value which is equal to the raw count value if the raw data filter is enabled.
 116:.\Generated_Source\PSoC4/CapSense_CSD_CSHL.c **** *
 117:.\Generated_Source\PSoC4/CapSense_CSD_CSHL.c **** * Parameters:
 118:.\Generated_Source\PSoC4/CapSense_CSD_CSHL.c **** *  sensor:  Sensor number.
 119:.\Generated_Source\PSoC4/CapSense_CSD_CSHL.c **** *
 120:.\Generated_Source\PSoC4/CapSense_CSD_CSHL.c **** * Return:
 121:.\Generated_Source\PSoC4/CapSense_CSD_CSHL.c **** *  None
 122:.\Generated_Source\PSoC4/CapSense_CSD_CSHL.c **** *
ARM GAS  C:\Users\Sausy\AppData\Local\Temp\ccLQi9zI.s 			page 5


 123:.\Generated_Source\PSoC4/CapSense_CSD_CSHL.c **** * Global Variables:
 124:.\Generated_Source\PSoC4/CapSense_CSD_CSHL.c **** *  CapSense_CSD_sensorBaseline[]    - used to store the baseline value.
 125:.\Generated_Source\PSoC4/CapSense_CSD_CSHL.c **** *  CapSense_CSD_sensorBaselineLow[] - used to store the fraction byte of 
 126:.\Generated_Source\PSoC4/CapSense_CSD_CSHL.c **** *  the baseline value.
 127:.\Generated_Source\PSoC4/CapSense_CSD_CSHL.c **** *  CapSense_CSD_sensorSignal[]      - used to store a difference between 
 128:.\Generated_Source\PSoC4/CapSense_CSD_CSHL.c **** *  the current value of raw data and the previous value of the baseline.
 129:.\Generated_Source\PSoC4/CapSense_CSD_CSHL.c **** *  CapSense_CSD_rawFilterData1[]    - used to store a previous sample of 
 130:.\Generated_Source\PSoC4/CapSense_CSD_CSHL.c **** *  any enabled raw data filter.
 131:.\Generated_Source\PSoC4/CapSense_CSD_CSHL.c **** *  CapSense_CSD_rawFilterData2[]    - used to store before a previous sample
 132:.\Generated_Source\PSoC4/CapSense_CSD_CSHL.c **** *  of the enabled raw data filter. Required only for median or average filters.
 133:.\Generated_Source\PSoC4/CapSense_CSD_CSHL.c **** *
 134:.\Generated_Source\PSoC4/CapSense_CSD_CSHL.c **** * Side Effects:
 135:.\Generated_Source\PSoC4/CapSense_CSD_CSHL.c **** *  None
 136:.\Generated_Source\PSoC4/CapSense_CSD_CSHL.c **** * 
 137:.\Generated_Source\PSoC4/CapSense_CSD_CSHL.c **** *******************************************************************************/
 138:.\Generated_Source\PSoC4/CapSense_CSD_CSHL.c **** void CapSense_CSD_BaseInit(uint32 sensor)
 139:.\Generated_Source\PSoC4/CapSense_CSD_CSHL.c **** {
 107              		.loc 1 139 0
 108              		.cfi_startproc
 109 0000 80B5     		push	{r7, lr}
 110              		.cfi_def_cfa_offset 8
 111              		.cfi_offset 7, -8
 112              		.cfi_offset 14, -4
 113 0002 84B0     		sub	sp, sp, #16
 114              		.cfi_def_cfa_offset 24
 115 0004 00AF     		add	r7, sp, #0
 116              		.cfi_def_cfa_register 7
 117 0006 7860     		str	r0, [r7, #4]
 140:.\Generated_Source\PSoC4/CapSense_CSD_CSHL.c ****     #if ((CapSense_CSD_TOTAL_BUTTONS_COUNT) || (CapSense_CSD_TOTAL_MATRIX_BUTTONS_COUNT) || \
 141:.\Generated_Source\PSoC4/CapSense_CSD_CSHL.c ****          (CapSense_CSD_TOTAL_GENERICS_COUNT))
 142:.\Generated_Source\PSoC4/CapSense_CSD_CSHL.c ****         uint8 widget = CapSense_CSD_widgetNumber[sensor];
 118              		.loc 1 142 0
 119 0008 3B1C     		mov	r3, r7
 120 000a 0F33     		add	r3, r3, #15
 121 000c 1349     		ldr	r1, .L2
 122 000e 7A68     		ldr	r2, [r7, #4]
 123 0010 8A18     		add	r2, r1, r2
 124 0012 1278     		ldrb	r2, [r2]
 125 0014 1A70     		strb	r2, [r3]
 143:.\Generated_Source\PSoC4/CapSense_CSD_CSHL.c ****     #endif /* ((CapSense_CSD_TOTAL_MATRIX_BUTTONS_COUNT) || (CapSense_CSD_TOTAL_MATRIX_BUTTONS_COUN
 144:.\Generated_Source\PSoC4/CapSense_CSD_CSHL.c ****     
 145:.\Generated_Source\PSoC4/CapSense_CSD_CSHL.c ****     #if (CapSense_CSD_TOTAL_MATRIX_BUTTONS_COUNT)
 146:.\Generated_Source\PSoC4/CapSense_CSD_CSHL.c ****         uint8 debounceIndex;
 147:.\Generated_Source\PSoC4/CapSense_CSD_CSHL.c ****     #endif  /* (CapSense_CSD_TOTAL_MATRIX_BUTTONS_COUNT) */
 148:.\Generated_Source\PSoC4/CapSense_CSD_CSHL.c ****     
 149:.\Generated_Source\PSoC4/CapSense_CSD_CSHL.c ****     #if (CapSense_CSD_TOTAL_GENERICS_COUNT)
 150:.\Generated_Source\PSoC4/CapSense_CSD_CSHL.c ****         /* Exclude generic widget */
 151:.\Generated_Source\PSoC4/CapSense_CSD_CSHL.c ****         if(widget < CapSense_CSD_END_OF_WIDGETS_INDEX)
 152:.\Generated_Source\PSoC4/CapSense_CSD_CSHL.c ****         {
 153:.\Generated_Source\PSoC4/CapSense_CSD_CSHL.c ****     #endif  /* CapSense_CSD_TOTAL_GENERICS_COUNT */
 154:.\Generated_Source\PSoC4/CapSense_CSD_CSHL.c ****     
 155:.\Generated_Source\PSoC4/CapSense_CSD_CSHL.c ****     /* Initialize Baseline */
 156:.\Generated_Source\PSoC4/CapSense_CSD_CSHL.c ****     CapSense_CSD_sensorBaseline[sensor] = CapSense_CSD_sensorRaw[sensor];
 126              		.loc 1 156 0
 127 0016 124B     		ldr	r3, .L2+4
 128 0018 7A68     		ldr	r2, [r7, #4]
 129 001a 5200     		lsl	r2, r2, #1
ARM GAS  C:\Users\Sausy\AppData\Local\Temp\ccLQi9zI.s 			page 6


 130 001c D15A     		ldrh	r1, [r2, r3]
 131 001e 114B     		ldr	r3, .L2+8
 132 0020 7A68     		ldr	r2, [r7, #4]
 133 0022 5200     		lsl	r2, r2, #1
 134 0024 D152     		strh	r1, [r2, r3]
 157:.\Generated_Source\PSoC4/CapSense_CSD_CSHL.c ****     CapSense_CSD_sensorBaselineLow[sensor] = 0u;
 135              		.loc 1 157 0
 136 0026 104A     		ldr	r2, .L2+12
 137 0028 7B68     		ldr	r3, [r7, #4]
 138 002a D318     		add	r3, r2, r3
 139 002c 0022     		mov	r2, #0
 140 002e 1A70     		strb	r2, [r3]
 158:.\Generated_Source\PSoC4/CapSense_CSD_CSHL.c ****     CapSense_CSD_sensorSignal[sensor] = 0u;
 141              		.loc 1 158 0
 142 0030 0E4B     		ldr	r3, .L2+16
 143 0032 7A68     		ldr	r2, [r7, #4]
 144 0034 5200     		lsl	r2, r2, #1
 145 0036 0021     		mov	r1, #0
 146 0038 D152     		strh	r1, [r2, r3]
 159:.\Generated_Source\PSoC4/CapSense_CSD_CSHL.c ****         
 160:.\Generated_Source\PSoC4/CapSense_CSD_CSHL.c ****     CapSense_CSD_debounceCounter[widget] =  CapSense_CSD_debounce[widget];
 147              		.loc 1 160 0
 148 003a 3B1C     		mov	r3, r7
 149 003c 0F33     		add	r3, r3, #15
 150 003e 1B78     		ldrb	r3, [r3]
 151 0040 0221     		mov	r1, #2
 152 0042 0B4A     		ldr	r2, .L2+20
 153 0044 D154     		strb	r1, [r2, r3]
 161:.\Generated_Source\PSoC4/CapSense_CSD_CSHL.c **** 
 162:.\Generated_Source\PSoC4/CapSense_CSD_CSHL.c ****     
 163:.\Generated_Source\PSoC4/CapSense_CSD_CSHL.c ****     #if ((0u != (CapSense_CSD_RAW_FILTER_MASK & CapSense_CSD_MEDIAN_FILTER)) ||\
 164:.\Generated_Source\PSoC4/CapSense_CSD_CSHL.c ****          (0u != (CapSense_CSD_RAW_FILTER_MASK & CapSense_CSD_AVERAGING_FILTER)))
 165:.\Generated_Source\PSoC4/CapSense_CSD_CSHL.c **** 
 166:.\Generated_Source\PSoC4/CapSense_CSD_CSHL.c ****         CapSense_CSD_rawFilterData1[sensor] = CapSense_CSD_sensorRaw[sensor];
 167:.\Generated_Source\PSoC4/CapSense_CSD_CSHL.c ****         CapSense_CSD_rawFilterData2[sensor] = CapSense_CSD_sensorRaw[sensor];
 168:.\Generated_Source\PSoC4/CapSense_CSD_CSHL.c ****     
 169:.\Generated_Source\PSoC4/CapSense_CSD_CSHL.c ****     #elif ((CapSense_CSD_RAW_FILTER_MASK & CapSense_CSD_IIR2_FILTER) ||\
 170:.\Generated_Source\PSoC4/CapSense_CSD_CSHL.c ****            (CapSense_CSD_RAW_FILTER_MASK & CapSense_CSD_IIR4_FILTER) ||\
 171:.\Generated_Source\PSoC4/CapSense_CSD_CSHL.c ****            (CapSense_CSD_RAW_FILTER_MASK & CapSense_CSD_JITTER_FILTER) ||\
 172:.\Generated_Source\PSoC4/CapSense_CSD_CSHL.c ****            (CapSense_CSD_RAW_FILTER_MASK & CapSense_CSD_IIR8_FILTER) ||\
 173:.\Generated_Source\PSoC4/CapSense_CSD_CSHL.c ****            (CapSense_CSD_RAW_FILTER_MASK & CapSense_CSD_IIR16_FILTER))
 174:.\Generated_Source\PSoC4/CapSense_CSD_CSHL.c ****             
 175:.\Generated_Source\PSoC4/CapSense_CSD_CSHL.c ****         CapSense_CSD_rawFilterData1[sensor] = CapSense_CSD_sensorRaw[sensor];
 154              		.loc 1 175 0
 155 0046 064B     		ldr	r3, .L2+4
 156 0048 7A68     		ldr	r2, [r7, #4]
 157 004a 5200     		lsl	r2, r2, #1
 158 004c D15A     		ldrh	r1, [r2, r3]
 159 004e 094B     		ldr	r3, .L2+24
 160 0050 7A68     		ldr	r2, [r7, #4]
 161 0052 5200     		lsl	r2, r2, #1
 162 0054 D152     		strh	r1, [r2, r3]
 176:.\Generated_Source\PSoC4/CapSense_CSD_CSHL.c ****     
 177:.\Generated_Source\PSoC4/CapSense_CSD_CSHL.c ****     #else
 178:.\Generated_Source\PSoC4/CapSense_CSD_CSHL.c ****         /* No Raw filters */
 179:.\Generated_Source\PSoC4/CapSense_CSD_CSHL.c ****     #endif  /* ((CapSense_CSD_RAW_FILTER_MASK & CapSense_CSD_MEDIAN_FILTER) || \
 180:.\Generated_Source\PSoC4/CapSense_CSD_CSHL.c ****             *   (CapSense_CSD_RAW_FILTER_MASK & CapSense_CSD_AVERAGING_FILTER))
ARM GAS  C:\Users\Sausy\AppData\Local\Temp\ccLQi9zI.s 			page 7


 181:.\Generated_Source\PSoC4/CapSense_CSD_CSHL.c ****             */
 182:.\Generated_Source\PSoC4/CapSense_CSD_CSHL.c ****     
 183:.\Generated_Source\PSoC4/CapSense_CSD_CSHL.c ****     #if (CapSense_CSD_TOTAL_GENERICS_COUNT)
 184:.\Generated_Source\PSoC4/CapSense_CSD_CSHL.c ****         /* Exclude generic widget */
 185:.\Generated_Source\PSoC4/CapSense_CSD_CSHL.c ****         }
 186:.\Generated_Source\PSoC4/CapSense_CSD_CSHL.c ****     #endif  /* CapSense_CSD_TOTAL_GENERICS_COUNT */
 187:.\Generated_Source\PSoC4/CapSense_CSD_CSHL.c **** }
 163              		.loc 1 187 0
 164 0056 BD46     		mov	sp, r7
 165 0058 04B0     		add	sp, sp, #16
 166              		@ sp needed
 167 005a 80BD     		pop	{r7, pc}
 168              	.L3:
 169              		.align	2
 170              	.L2:
 171 005c 00000000 		.word	CapSense_CSD_widgetNumber
 172 0060 00000000 		.word	CapSense_CSD_sensorRaw
 173 0064 00000000 		.word	CapSense_CSD_sensorBaseline
 174 0068 00000000 		.word	CapSense_CSD_sensorBaselineLow
 175 006c 00000000 		.word	CapSense_CSD_sensorSignal
 176 0070 10000000 		.word	CapSense_CSD_debounceCounter
 177 0074 00000000 		.word	CapSense_CSD_rawFilterData1
 178              		.cfi_endproc
 179              	.LFE33:
 180              		.size	CapSense_CSD_BaseInit, .-CapSense_CSD_BaseInit
 181              		.section	.text.CapSense_CSD_InitializeSensorBaseline,"ax",%progbits
 182              		.align	2
 183              		.global	CapSense_CSD_InitializeSensorBaseline
 184              		.code	16
 185              		.thumb_func
 186              		.type	CapSense_CSD_InitializeSensorBaseline, %function
 187              	CapSense_CSD_InitializeSensorBaseline:
 188              	.LFB34:
 188:.\Generated_Source\PSoC4/CapSense_CSD_CSHL.c **** 
 189:.\Generated_Source\PSoC4/CapSense_CSD_CSHL.c **** 
 190:.\Generated_Source\PSoC4/CapSense_CSD_CSHL.c **** /*******************************************************************************
 191:.\Generated_Source\PSoC4/CapSense_CSD_CSHL.c **** * Function Name: CapSense_CSD_InitializeSensorBaseline
 192:.\Generated_Source\PSoC4/CapSense_CSD_CSHL.c **** ********************************************************************************
 193:.\Generated_Source\PSoC4/CapSense_CSD_CSHL.c **** *
 194:.\Generated_Source\PSoC4/CapSense_CSD_CSHL.c **** * Summary:
 195:.\Generated_Source\PSoC4/CapSense_CSD_CSHL.c **** *  Loads the CapSense_CSD_sensorBaseline[sensor] array element with an 
 196:.\Generated_Source\PSoC4/CapSense_CSD_CSHL.c **** *  initial value by scanning the selected sensor (one channel design) or a pair 
 197:.\Generated_Source\PSoC4/CapSense_CSD_CSHL.c **** *  of sensors (two channels designs). The raw count value is copied into the 
 198:.\Generated_Source\PSoC4/CapSense_CSD_CSHL.c **** *  baseline array for each sensor. The raw data filters are initialized if 
 199:.\Generated_Source\PSoC4/CapSense_CSD_CSHL.c **** *  enabled.
 200:.\Generated_Source\PSoC4/CapSense_CSD_CSHL.c **** *
 201:.\Generated_Source\PSoC4/CapSense_CSD_CSHL.c **** * Parameters:
 202:.\Generated_Source\PSoC4/CapSense_CSD_CSHL.c **** *  sensor:  Sensor number.
 203:.\Generated_Source\PSoC4/CapSense_CSD_CSHL.c **** *
 204:.\Generated_Source\PSoC4/CapSense_CSD_CSHL.c **** * Return:
 205:.\Generated_Source\PSoC4/CapSense_CSD_CSHL.c **** *  None
 206:.\Generated_Source\PSoC4/CapSense_CSD_CSHL.c **** *
 207:.\Generated_Source\PSoC4/CapSense_CSD_CSHL.c **** * Global Variables:
 208:.\Generated_Source\PSoC4/CapSense_CSD_CSHL.c **** *  None
 209:.\Generated_Source\PSoC4/CapSense_CSD_CSHL.c **** *
 210:.\Generated_Source\PSoC4/CapSense_CSD_CSHL.c **** * Side Effects:
 211:.\Generated_Source\PSoC4/CapSense_CSD_CSHL.c **** *  None
ARM GAS  C:\Users\Sausy\AppData\Local\Temp\ccLQi9zI.s 			page 8


 212:.\Generated_Source\PSoC4/CapSense_CSD_CSHL.c **** * 
 213:.\Generated_Source\PSoC4/CapSense_CSD_CSHL.c **** *******************************************************************************/
 214:.\Generated_Source\PSoC4/CapSense_CSD_CSHL.c **** void CapSense_CSD_InitializeSensorBaseline(uint32 sensor)
 215:.\Generated_Source\PSoC4/CapSense_CSD_CSHL.c **** {
 189              		.loc 1 215 0
 190              		.cfi_startproc
 191 0000 80B5     		push	{r7, lr}
 192              		.cfi_def_cfa_offset 8
 193              		.cfi_offset 7, -8
 194              		.cfi_offset 14, -4
 195 0002 82B0     		sub	sp, sp, #8
 196              		.cfi_def_cfa_offset 16
 197 0004 00AF     		add	r7, sp, #0
 198              		.cfi_def_cfa_register 7
 199 0006 7860     		str	r0, [r7, #4]
 216:.\Generated_Source\PSoC4/CapSense_CSD_CSHL.c ****     /* Scan sensor */
 217:.\Generated_Source\PSoC4/CapSense_CSD_CSHL.c ****     CapSense_CSD_ScanSensor(sensor);
 200              		.loc 1 217 0
 201 0008 7B68     		ldr	r3, [r7, #4]
 202 000a 181C     		mov	r0, r3
 203 000c FFF7FEFF 		bl	CapSense_CSD_ScanSensor
 218:.\Generated_Source\PSoC4/CapSense_CSD_CSHL.c ****     while(CapSense_CSD_IsBusy() != 0u)
 204              		.loc 1 218 0
 205 0010 C046     		mov	r8, r8
 206              	.L5:
 207              		.loc 1 218 0 is_stmt 0 discriminator 1
 208 0012 FFF7FEFF 		bl	CapSense_CSD_IsBusy
 209 0016 031C     		mov	r3, r0
 210 0018 002B     		cmp	r3, #0
 211 001a FAD1     		bne	.L5
 219:.\Generated_Source\PSoC4/CapSense_CSD_CSHL.c ****     {
 220:.\Generated_Source\PSoC4/CapSense_CSD_CSHL.c ****         /* Wait while sensor is busy */
 221:.\Generated_Source\PSoC4/CapSense_CSD_CSHL.c ****     }
 222:.\Generated_Source\PSoC4/CapSense_CSD_CSHL.c ****     
 223:.\Generated_Source\PSoC4/CapSense_CSD_CSHL.c ****     /* Initialize Baseline, Signal and debounce counters */       
 224:.\Generated_Source\PSoC4/CapSense_CSD_CSHL.c ****     CapSense_CSD_BaseInit(sensor);
 212              		.loc 1 224 0 is_stmt 1
 213 001c 7B68     		ldr	r3, [r7, #4]
 214 001e 181C     		mov	r0, r3
 215 0020 FFF7FEFF 		bl	CapSense_CSD_BaseInit
 225:.\Generated_Source\PSoC4/CapSense_CSD_CSHL.c **** }
 216              		.loc 1 225 0
 217 0024 BD46     		mov	sp, r7
 218 0026 02B0     		add	sp, sp, #8
 219              		@ sp needed
 220 0028 80BD     		pop	{r7, pc}
 221              		.cfi_endproc
 222              	.LFE34:
 223              		.size	CapSense_CSD_InitializeSensorBaseline, .-CapSense_CSD_InitializeSensorBaseline
 224 002a C046     		.section	.text.CapSense_CSD_InitializeAllBaselines,"ax",%progbits
 225              		.align	2
 226              		.global	CapSense_CSD_InitializeAllBaselines
 227              		.code	16
 228              		.thumb_func
 229              		.type	CapSense_CSD_InitializeAllBaselines, %function
 230              	CapSense_CSD_InitializeAllBaselines:
 231              	.LFB35:
ARM GAS  C:\Users\Sausy\AppData\Local\Temp\ccLQi9zI.s 			page 9


 226:.\Generated_Source\PSoC4/CapSense_CSD_CSHL.c **** 
 227:.\Generated_Source\PSoC4/CapSense_CSD_CSHL.c **** 
 228:.\Generated_Source\PSoC4/CapSense_CSD_CSHL.c **** /*******************************************************************************
 229:.\Generated_Source\PSoC4/CapSense_CSD_CSHL.c **** * Function Name: CapSense_CSD_InitializeAllBaselines
 230:.\Generated_Source\PSoC4/CapSense_CSD_CSHL.c **** ********************************************************************************
 231:.\Generated_Source\PSoC4/CapSense_CSD_CSHL.c **** *
 232:.\Generated_Source\PSoC4/CapSense_CSD_CSHL.c **** * Summary:
 233:.\Generated_Source\PSoC4/CapSense_CSD_CSHL.c **** *  Uses the CapSense_CSD_InitializeSensorBaseline function to load the 
 234:.\Generated_Source\PSoC4/CapSense_CSD_CSHL.c **** *  CapSense_CSD_sensorBaseline[] array with an initial values by scanning 
 235:.\Generated_Source\PSoC4/CapSense_CSD_CSHL.c **** *  all the sensors. The raw count values are copied into the baseline array for 
 236:.\Generated_Source\PSoC4/CapSense_CSD_CSHL.c **** *  all the sensors. The raw data filters are initialized if enabled.
 237:.\Generated_Source\PSoC4/CapSense_CSD_CSHL.c **** *
 238:.\Generated_Source\PSoC4/CapSense_CSD_CSHL.c **** * Parameters:
 239:.\Generated_Source\PSoC4/CapSense_CSD_CSHL.c **** *  None
 240:.\Generated_Source\PSoC4/CapSense_CSD_CSHL.c **** *
 241:.\Generated_Source\PSoC4/CapSense_CSD_CSHL.c **** * Return:
 242:.\Generated_Source\PSoC4/CapSense_CSD_CSHL.c **** *  None
 243:.\Generated_Source\PSoC4/CapSense_CSD_CSHL.c **** *
 244:.\Generated_Source\PSoC4/CapSense_CSD_CSHL.c **** * Global Variables:
 245:.\Generated_Source\PSoC4/CapSense_CSD_CSHL.c **** *  None
 246:.\Generated_Source\PSoC4/CapSense_CSD_CSHL.c **** *
 247:.\Generated_Source\PSoC4/CapSense_CSD_CSHL.c **** * Side Effects:
 248:.\Generated_Source\PSoC4/CapSense_CSD_CSHL.c **** *  None
 249:.\Generated_Source\PSoC4/CapSense_CSD_CSHL.c **** * 
 250:.\Generated_Source\PSoC4/CapSense_CSD_CSHL.c **** *******************************************************************************/
 251:.\Generated_Source\PSoC4/CapSense_CSD_CSHL.c **** void CapSense_CSD_InitializeAllBaselines(void)
 252:.\Generated_Source\PSoC4/CapSense_CSD_CSHL.c **** {
 232              		.loc 1 252 0
 233              		.cfi_startproc
 234 0000 80B5     		push	{r7, lr}
 235              		.cfi_def_cfa_offset 8
 236              		.cfi_offset 7, -8
 237              		.cfi_offset 14, -4
 238 0002 82B0     		sub	sp, sp, #8
 239              		.cfi_def_cfa_offset 16
 240 0004 00AF     		add	r7, sp, #0
 241              		.cfi_def_cfa_register 7
 253:.\Generated_Source\PSoC4/CapSense_CSD_CSHL.c ****     uint32 i;
 254:.\Generated_Source\PSoC4/CapSense_CSD_CSHL.c ****     
 255:.\Generated_Source\PSoC4/CapSense_CSD_CSHL.c **** 	for(i = 0u; i < CapSense_CSD_TOTAL_SCANSLOT_COUNT; i++)
 242              		.loc 1 255 0
 243 0006 0023     		mov	r3, #0
 244 0008 7B60     		str	r3, [r7, #4]
 245 000a 06E0     		b	.L7
 246              	.L8:
 256:.\Generated_Source\PSoC4/CapSense_CSD_CSHL.c **** 	{
 257:.\Generated_Source\PSoC4/CapSense_CSD_CSHL.c ****     	CapSense_CSD_InitializeSensorBaseline(i);
 247              		.loc 1 257 0 discriminator 2
 248 000c 7B68     		ldr	r3, [r7, #4]
 249 000e 181C     		mov	r0, r3
 250 0010 FFF7FEFF 		bl	CapSense_CSD_InitializeSensorBaseline
 255:.\Generated_Source\PSoC4/CapSense_CSD_CSHL.c **** 	for(i = 0u; i < CapSense_CSD_TOTAL_SCANSLOT_COUNT; i++)
 251              		.loc 1 255 0 discriminator 2
 252 0014 7B68     		ldr	r3, [r7, #4]
 253 0016 0133     		add	r3, r3, #1
 254 0018 7B60     		str	r3, [r7, #4]
 255              	.L7:
ARM GAS  C:\Users\Sausy\AppData\Local\Temp\ccLQi9zI.s 			page 10


 255:.\Generated_Source\PSoC4/CapSense_CSD_CSHL.c **** 	for(i = 0u; i < CapSense_CSD_TOTAL_SCANSLOT_COUNT; i++)
 256              		.loc 1 255 0 is_stmt 0 discriminator 1
 257 001a 7B68     		ldr	r3, [r7, #4]
 258 001c 002B     		cmp	r3, #0
 259 001e F5D0     		beq	.L8
 258:.\Generated_Source\PSoC4/CapSense_CSD_CSHL.c **** 	}
 259:.\Generated_Source\PSoC4/CapSense_CSD_CSHL.c **** }
 260              		.loc 1 259 0 is_stmt 1
 261 0020 BD46     		mov	sp, r7
 262 0022 02B0     		add	sp, sp, #8
 263              		@ sp needed
 264 0024 80BD     		pop	{r7, pc}
 265              		.cfi_endproc
 266              	.LFE35:
 267              		.size	CapSense_CSD_InitializeAllBaselines, .-CapSense_CSD_InitializeAllBaselines
 268 0026 C046     		.section	.text.CapSense_CSD_InitializeEnabledBaselines,"ax",%progbits
 269              		.align	2
 270              		.global	CapSense_CSD_InitializeEnabledBaselines
 271              		.code	16
 272              		.thumb_func
 273              		.type	CapSense_CSD_InitializeEnabledBaselines, %function
 274              	CapSense_CSD_InitializeEnabledBaselines:
 275              	.LFB36:
 260:.\Generated_Source\PSoC4/CapSense_CSD_CSHL.c **** 
 261:.\Generated_Source\PSoC4/CapSense_CSD_CSHL.c **** 
 262:.\Generated_Source\PSoC4/CapSense_CSD_CSHL.c **** /*******************************************************************************
 263:.\Generated_Source\PSoC4/CapSense_CSD_CSHL.c **** * Function Name: CapSense_CSD_InitializeEnabledBaselines
 264:.\Generated_Source\PSoC4/CapSense_CSD_CSHL.c **** ********************************************************************************
 265:.\Generated_Source\PSoC4/CapSense_CSD_CSHL.c **** *
 266:.\Generated_Source\PSoC4/CapSense_CSD_CSHL.c **** * Summary:
 267:.\Generated_Source\PSoC4/CapSense_CSD_CSHL.c **** *  Scans all the enabled widgets and the raw count values are copied into the 
 268:.\Generated_Source\PSoC4/CapSense_CSD_CSHL.c **** *  baseline array for all the sensors enabled in the scanning process. The baselines 
 269:.\Generated_Source\PSoC4/CapSense_CSD_CSHL.c **** *  are initialized with zero values for sensors disabled from the scanning process. 
 270:.\Generated_Source\PSoC4/CapSense_CSD_CSHL.c **** *  The raw data filters are initialized if enabled.
 271:.\Generated_Source\PSoC4/CapSense_CSD_CSHL.c **** *
 272:.\Generated_Source\PSoC4/CapSense_CSD_CSHL.c **** * Parameters:
 273:.\Generated_Source\PSoC4/CapSense_CSD_CSHL.c **** *  None
 274:.\Generated_Source\PSoC4/CapSense_CSD_CSHL.c **** *
 275:.\Generated_Source\PSoC4/CapSense_CSD_CSHL.c **** * Return:
 276:.\Generated_Source\PSoC4/CapSense_CSD_CSHL.c **** *  None
 277:.\Generated_Source\PSoC4/CapSense_CSD_CSHL.c **** *
 278:.\Generated_Source\PSoC4/CapSense_CSD_CSHL.c **** * Global Variables:
 279:.\Generated_Source\PSoC4/CapSense_CSD_CSHL.c **** *  CapSense_CSD_sensorRaw[] - used to store the sensors raw data.
 280:.\Generated_Source\PSoC4/CapSense_CSD_CSHL.c **** *  CapSense_CSD_sensorEnableMask[ ] - used to store bit masks of the enabled sensors.
 281:.\Generated_Source\PSoC4/CapSense_CSD_CSHL.c **** *
 282:.\Generated_Source\PSoC4/CapSense_CSD_CSHL.c **** * Side Effects:
 283:.\Generated_Source\PSoC4/CapSense_CSD_CSHL.c **** *  None
 284:.\Generated_Source\PSoC4/CapSense_CSD_CSHL.c **** * 
 285:.\Generated_Source\PSoC4/CapSense_CSD_CSHL.c **** *******************************************************************************/
 286:.\Generated_Source\PSoC4/CapSense_CSD_CSHL.c **** void CapSense_CSD_InitializeEnabledBaselines(void)
 287:.\Generated_Source\PSoC4/CapSense_CSD_CSHL.c **** {
 276              		.loc 1 287 0
 277              		.cfi_startproc
 278 0000 80B5     		push	{r7, lr}
 279              		.cfi_def_cfa_offset 8
 280              		.cfi_offset 7, -8
 281              		.cfi_offset 14, -4
ARM GAS  C:\Users\Sausy\AppData\Local\Temp\ccLQi9zI.s 			page 11


 282 0002 82B0     		sub	sp, sp, #8
 283              		.cfi_def_cfa_offset 16
 284 0004 00AF     		add	r7, sp, #0
 285              		.cfi_def_cfa_register 7
 288:.\Generated_Source\PSoC4/CapSense_CSD_CSHL.c ****     uint32 i;
 289:.\Generated_Source\PSoC4/CapSense_CSD_CSHL.c ****     uint32 isSensorEnabled;
 290:.\Generated_Source\PSoC4/CapSense_CSD_CSHL.c ****     
 291:.\Generated_Source\PSoC4/CapSense_CSD_CSHL.c ****     CapSense_CSD_ScanEnabledWidgets();
 286              		.loc 1 291 0
 287 0006 FFF7FEFF 		bl	CapSense_CSD_ScanEnabledWidgets
 292:.\Generated_Source\PSoC4/CapSense_CSD_CSHL.c ****     while(CapSense_CSD_IsBusy() != 0u)
 288              		.loc 1 292 0
 289 000a C046     		mov	r8, r8
 290              	.L10:
 291              		.loc 1 292 0 is_stmt 0 discriminator 1
 292 000c FFF7FEFF 		bl	CapSense_CSD_IsBusy
 293 0010 031C     		mov	r3, r0
 294 0012 002B     		cmp	r3, #0
 295 0014 FAD1     		bne	.L10
 293:.\Generated_Source\PSoC4/CapSense_CSD_CSHL.c ****     {
 294:.\Generated_Source\PSoC4/CapSense_CSD_CSHL.c ****         /* Wait while sensor is busy */
 295:.\Generated_Source\PSoC4/CapSense_CSD_CSHL.c ****     }
 296:.\Generated_Source\PSoC4/CapSense_CSD_CSHL.c ****     
 297:.\Generated_Source\PSoC4/CapSense_CSD_CSHL.c ****     for(i = 0u; i < CapSense_CSD_TOTAL_SENSOR_COUNT; i++)
 296              		.loc 1 297 0 is_stmt 1
 297 0016 0023     		mov	r3, #0
 298 0018 7B60     		str	r3, [r7, #4]
 299 001a 11E0     		b	.L11
 300              	.L13:
 298:.\Generated_Source\PSoC4/CapSense_CSD_CSHL.c ****     {
 299:.\Generated_Source\PSoC4/CapSense_CSD_CSHL.c ****         isSensorEnabled = CapSense_CSD_GetBitValue(CapSense_CSD_sensorEnableMask, i);
 301              		.loc 1 299 0
 302 001c 0B4A     		ldr	r2, .L14
 303 001e 7B68     		ldr	r3, [r7, #4]
 304 0020 101C     		mov	r0, r2
 305 0022 191C     		mov	r1, r3
 306 0024 FFF7FEFF 		bl	CapSense_CSD_GetBitValue
 307 0028 031C     		mov	r3, r0
 308 002a 3B60     		str	r3, [r7]
 300:.\Generated_Source\PSoC4/CapSense_CSD_CSHL.c ****         
 301:.\Generated_Source\PSoC4/CapSense_CSD_CSHL.c ****         /* Clear raw data if sensor is disabled from scanning process */
 302:.\Generated_Source\PSoC4/CapSense_CSD_CSHL.c ****         if(isSensorEnabled != 0u)
 309              		.loc 1 302 0
 310 002c 3B68     		ldr	r3, [r7]
 311 002e 002B     		cmp	r3, #0
 312 0030 03D0     		beq	.L12
 303:.\Generated_Source\PSoC4/CapSense_CSD_CSHL.c ****         {
 304:.\Generated_Source\PSoC4/CapSense_CSD_CSHL.c ****             /* Initialize baselines */
 305:.\Generated_Source\PSoC4/CapSense_CSD_CSHL.c ****             CapSense_CSD_BaseInit(i);
 313              		.loc 1 305 0
 314 0032 7B68     		ldr	r3, [r7, #4]
 315 0034 181C     		mov	r0, r3
 316 0036 FFF7FEFF 		bl	CapSense_CSD_BaseInit
 317              	.L12:
 297:.\Generated_Source\PSoC4/CapSense_CSD_CSHL.c ****     for(i = 0u; i < CapSense_CSD_TOTAL_SENSOR_COUNT; i++)
 318              		.loc 1 297 0
 319 003a 7B68     		ldr	r3, [r7, #4]
ARM GAS  C:\Users\Sausy\AppData\Local\Temp\ccLQi9zI.s 			page 12


 320 003c 0133     		add	r3, r3, #1
 321 003e 7B60     		str	r3, [r7, #4]
 322              	.L11:
 297:.\Generated_Source\PSoC4/CapSense_CSD_CSHL.c ****     for(i = 0u; i < CapSense_CSD_TOTAL_SENSOR_COUNT; i++)
 323              		.loc 1 297 0 is_stmt 0 discriminator 1
 324 0040 7B68     		ldr	r3, [r7, #4]
 325 0042 002B     		cmp	r3, #0
 326 0044 EAD0     		beq	.L13
 306:.\Generated_Source\PSoC4/CapSense_CSD_CSHL.c ****         }
 307:.\Generated_Source\PSoC4/CapSense_CSD_CSHL.c ****     }
 308:.\Generated_Source\PSoC4/CapSense_CSD_CSHL.c **** }  
 327              		.loc 1 308 0 is_stmt 1
 328 0046 BD46     		mov	sp, r7
 329 0048 02B0     		add	sp, sp, #8
 330              		@ sp needed
 331 004a 80BD     		pop	{r7, pc}
 332              	.L15:
 333              		.align	2
 334              	.L14:
 335 004c 00000000 		.word	CapSense_CSD_sensorEnableMask
 336              		.cfi_endproc
 337              	.LFE36:
 338              		.size	CapSense_CSD_InitializeEnabledBaselines, .-CapSense_CSD_InitializeEnabledBaselines
 339              		.section	.text.CapSense_CSD_UpdateBaselineNoThreshold,"ax",%progbits
 340              		.align	2
 341              		.global	CapSense_CSD_UpdateBaselineNoThreshold
 342              		.code	16
 343              		.thumb_func
 344              		.type	CapSense_CSD_UpdateBaselineNoThreshold, %function
 345              	CapSense_CSD_UpdateBaselineNoThreshold:
 346              	.LFB37:
 309:.\Generated_Source\PSoC4/CapSense_CSD_CSHL.c **** 
 310:.\Generated_Source\PSoC4/CapSense_CSD_CSHL.c **** 
 311:.\Generated_Source\PSoC4/CapSense_CSD_CSHL.c **** /*******************************************************************************
 312:.\Generated_Source\PSoC4/CapSense_CSD_CSHL.c **** * Function Name: CapSense_CSD_UpdateBaselineNoThreshold
 313:.\Generated_Source\PSoC4/CapSense_CSD_CSHL.c **** ********************************************************************************
 314:.\Generated_Source\PSoC4/CapSense_CSD_CSHL.c **** *
 315:.\Generated_Source\PSoC4/CapSense_CSD_CSHL.c **** * Summary:
 316:.\Generated_Source\PSoC4/CapSense_CSD_CSHL.c **** *  Updates the CapSense_CSD_sensorBaseline[sensor] array element using the 
 317:.\Generated_Source\PSoC4/CapSense_CSD_CSHL.c **** *  LP filter with k = 256. The signal calculates the difference of count by 
 318:.\Generated_Source\PSoC4/CapSense_CSD_CSHL.c **** *  subtracting the previous baseline from the current raw count value and stores
 319:.\Generated_Source\PSoC4/CapSense_CSD_CSHL.c **** *  it in CapSense_CSD_sensorSignal[sensor]. 
 320:.\Generated_Source\PSoC4/CapSense_CSD_CSHL.c **** *  If the auto reset option is enabled, the baseline updated regards the noise threshold. 
 321:.\Generated_Source\PSoC4/CapSense_CSD_CSHL.c **** *  If the auto reset option is disabled, the baseline stops updating; baseline is loaded 
 322:.\Generated_Source\PSoC4/CapSense_CSD_CSHL.c **** *  with a raw count value if a signal is greater than zero and if signal is less 
 323:.\Generated_Source\PSoC4/CapSense_CSD_CSHL.c **** *  than noise threshold.
 324:.\Generated_Source\PSoC4/CapSense_CSD_CSHL.c **** *  Raw data filters are applied to the values if enabled before baseline 
 325:.\Generated_Source\PSoC4/CapSense_CSD_CSHL.c **** *  calculation.
 326:.\Generated_Source\PSoC4/CapSense_CSD_CSHL.c **** *
 327:.\Generated_Source\PSoC4/CapSense_CSD_CSHL.c **** *  This API does not update the thresholds in the Smartsense Mode.
 328:.\Generated_Source\PSoC4/CapSense_CSD_CSHL.c **** *
 329:.\Generated_Source\PSoC4/CapSense_CSD_CSHL.c **** * Parameters:
 330:.\Generated_Source\PSoC4/CapSense_CSD_CSHL.c **** *  sensor:  Sensor number.
 331:.\Generated_Source\PSoC4/CapSense_CSD_CSHL.c **** *
 332:.\Generated_Source\PSoC4/CapSense_CSD_CSHL.c **** * Return:
 333:.\Generated_Source\PSoC4/CapSense_CSD_CSHL.c **** *  None
 334:.\Generated_Source\PSoC4/CapSense_CSD_CSHL.c **** *
ARM GAS  C:\Users\Sausy\AppData\Local\Temp\ccLQi9zI.s 			page 13


 335:.\Generated_Source\PSoC4/CapSense_CSD_CSHL.c **** * Global Variables:
 336:.\Generated_Source\PSoC4/CapSense_CSD_CSHL.c **** *  CapSense_CSD_widgetNumber[]  - stores widget numbers.
 337:.\Generated_Source\PSoC4/CapSense_CSD_CSHL.c **** *  CapSense_CSD_sensorBaseline[]    - used to store baseline value.
 338:.\Generated_Source\PSoC4/CapSense_CSD_CSHL.c **** *  CapSense_CSD_sensorBaselineLow[] - used to store fraction byte of 
 339:.\Generated_Source\PSoC4/CapSense_CSD_CSHL.c **** *  baseline value.
 340:.\Generated_Source\PSoC4/CapSense_CSD_CSHL.c **** *  CapSense_CSD_sensorSignal[]      - used to store difference between 
 341:.\Generated_Source\PSoC4/CapSense_CSD_CSHL.c **** *  current value of raw data and previous value of baseline.
 342:.\Generated_Source\PSoC4/CapSense_CSD_CSHL.c **** *  CapSense_CSD_rawFilterData1[]    - used to store previous sample of 
 343:.\Generated_Source\PSoC4/CapSense_CSD_CSHL.c **** *  any enabled raw data filter.
 344:.\Generated_Source\PSoC4/CapSense_CSD_CSHL.c **** *  CapSense_CSD_rawFilterData2[]    - used to store before previous sample
 345:.\Generated_Source\PSoC4/CapSense_CSD_CSHL.c **** *  of enabled raw data filter. Only required for median or average filters.
 346:.\Generated_Source\PSoC4/CapSense_CSD_CSHL.c **** * 
 347:.\Generated_Source\PSoC4/CapSense_CSD_CSHL.c **** * Side Effects:
 348:.\Generated_Source\PSoC4/CapSense_CSD_CSHL.c **** *  None
 349:.\Generated_Source\PSoC4/CapSense_CSD_CSHL.c **** * 
 350:.\Generated_Source\PSoC4/CapSense_CSD_CSHL.c **** *******************************************************************************/
 351:.\Generated_Source\PSoC4/CapSense_CSD_CSHL.c **** void CapSense_CSD_UpdateBaselineNoThreshold(uint32 sensor)
 352:.\Generated_Source\PSoC4/CapSense_CSD_CSHL.c **** {
 347              		.loc 1 352 0
 348              		.cfi_startproc
 349 0000 90B5     		push	{r4, r7, lr}
 350              		.cfi_def_cfa_offset 12
 351              		.cfi_offset 4, -12
 352              		.cfi_offset 7, -8
 353              		.cfi_offset 14, -4
 354 0002 87B0     		sub	sp, sp, #28
 355              		.cfi_def_cfa_offset 40
 356 0004 00AF     		add	r7, sp, #0
 357              		.cfi_def_cfa_register 7
 358 0006 7860     		str	r0, [r7, #4]
 353:.\Generated_Source\PSoC4/CapSense_CSD_CSHL.c ****     uint32 calc;
 354:.\Generated_Source\PSoC4/CapSense_CSD_CSHL.c **** 	uint32 sign;
 355:.\Generated_Source\PSoC4/CapSense_CSD_CSHL.c ****     uint16 tempRaw;
 356:.\Generated_Source\PSoC4/CapSense_CSD_CSHL.c ****     uint16 filteredRawData;
 357:.\Generated_Source\PSoC4/CapSense_CSD_CSHL.c ****     uint8 widget = CapSense_CSD_widgetNumber[sensor];
 359              		.loc 1 357 0
 360 0008 3B1C     		mov	r3, r7
 361 000a 0F33     		add	r3, r3, #15
 362 000c 6849     		ldr	r1, .L27
 363 000e 7A68     		ldr	r2, [r7, #4]
 364 0010 8A18     		add	r2, r1, r2
 365 0012 1278     		ldrb	r2, [r2]
 366 0014 1A70     		strb	r2, [r3]
 358:.\Generated_Source\PSoC4/CapSense_CSD_CSHL.c ****     uint16 noiseThreshold = CapSense_CSD_noiseThreshold[widget];
 367              		.loc 1 358 0
 368 0016 3B1C     		mov	r3, r7
 369 0018 0C33     		add	r3, r3, #12
 370 001a 0322     		mov	r2, #3
 371 001c 1A80     		strh	r2, [r3]
 359:.\Generated_Source\PSoC4/CapSense_CSD_CSHL.c ****     
 360:.\Generated_Source\PSoC4/CapSense_CSD_CSHL.c ****     #if (CapSense_CSD_TOTAL_GENERICS_COUNT)
 361:.\Generated_Source\PSoC4/CapSense_CSD_CSHL.c ****         /* Exclude generic widget */
 362:.\Generated_Source\PSoC4/CapSense_CSD_CSHL.c ****         if(widget < CapSense_CSD_END_OF_WIDGETS_INDEX)
 363:.\Generated_Source\PSoC4/CapSense_CSD_CSHL.c ****         {
 364:.\Generated_Source\PSoC4/CapSense_CSD_CSHL.c ****     #endif  /* CapSense_CSD_TOTAL_GENERICS_COUNT */
 365:.\Generated_Source\PSoC4/CapSense_CSD_CSHL.c ****     
 366:.\Generated_Source\PSoC4/CapSense_CSD_CSHL.c ****     filteredRawData = CapSense_CSD_sensorRaw[sensor];
ARM GAS  C:\Users\Sausy\AppData\Local\Temp\ccLQi9zI.s 			page 14


 372              		.loc 1 366 0
 373 001e 3B1C     		mov	r3, r7
 374 0020 1033     		add	r3, r3, #16
 375 0022 644A     		ldr	r2, .L27+4
 376 0024 7968     		ldr	r1, [r7, #4]
 377 0026 4900     		lsl	r1, r1, #1
 378 0028 8A5A     		ldrh	r2, [r1, r2]
 379 002a 1A80     		strh	r2, [r3]
 367:.\Generated_Source\PSoC4/CapSense_CSD_CSHL.c **** 
 368:.\Generated_Source\PSoC4/CapSense_CSD_CSHL.c **** 	#if (CapSense_CSD_RAW_FILTER_MASK != 0u)
 369:.\Generated_Source\PSoC4/CapSense_CSD_CSHL.c **** 	if(CapSense_CSD_enableRawFilters != 0u)
 380              		.loc 1 369 0
 381 002c 624B     		ldr	r3, .L27+8
 382 002e 1B78     		ldrb	r3, [r3]
 383 0030 002B     		cmp	r3, #0
 384 0032 15D0     		beq	.L17
 370:.\Generated_Source\PSoC4/CapSense_CSD_CSHL.c **** 	{
 371:.\Generated_Source\PSoC4/CapSense_CSD_CSHL.c **** 		#if (CapSense_CSD_RAW_FILTER_MASK & CapSense_CSD_MEDIAN_FILTER)
 372:.\Generated_Source\PSoC4/CapSense_CSD_CSHL.c **** 			tempRaw = filteredRawData;
 373:.\Generated_Source\PSoC4/CapSense_CSD_CSHL.c **** 			filteredRawData = CapSense_CSD_MedianFilter(filteredRawData, CapSense_CSD_rawFilterData1[sensor]
 374:.\Generated_Source\PSoC4/CapSense_CSD_CSHL.c **** 															CapSense_CSD_rawFilterData2[sensor]);
 375:.\Generated_Source\PSoC4/CapSense_CSD_CSHL.c **** 			CapSense_CSD_rawFilterData2[sensor] = CapSense_CSD_rawFilterData1[sensor];
 376:.\Generated_Source\PSoC4/CapSense_CSD_CSHL.c **** 			CapSense_CSD_rawFilterData1[sensor] = tempRaw;
 377:.\Generated_Source\PSoC4/CapSense_CSD_CSHL.c **** 			
 378:.\Generated_Source\PSoC4/CapSense_CSD_CSHL.c **** 		#elif (CapSense_CSD_RAW_FILTER_MASK & CapSense_CSD_AVERAGING_FILTER)
 379:.\Generated_Source\PSoC4/CapSense_CSD_CSHL.c **** 			tempRaw = filteredRawData;
 380:.\Generated_Source\PSoC4/CapSense_CSD_CSHL.c **** 			filteredRawData = CapSense_CSD_AveragingFilter(filteredRawData, CapSense_CSD_rawFilterData1[sens
 381:.\Generated_Source\PSoC4/CapSense_CSD_CSHL.c **** 															   CapSense_CSD_rawFilterData2[sensor]);
 382:.\Generated_Source\PSoC4/CapSense_CSD_CSHL.c **** 			CapSense_CSD_rawFilterData2[sensor] = CapSense_CSD_rawFilterData1[sensor];
 383:.\Generated_Source\PSoC4/CapSense_CSD_CSHL.c **** 			CapSense_CSD_rawFilterData1[sensor] = tempRaw;
 384:.\Generated_Source\PSoC4/CapSense_CSD_CSHL.c **** 			
 385:.\Generated_Source\PSoC4/CapSense_CSD_CSHL.c **** 		#elif (CapSense_CSD_RAW_FILTER_MASK & CapSense_CSD_IIR2_FILTER)
 386:.\Generated_Source\PSoC4/CapSense_CSD_CSHL.c **** 			filteredRawData = CapSense_CSD_IIR2Filter(filteredRawData, CapSense_CSD_rawFilterData1[sensor]);
 387:.\Generated_Source\PSoC4/CapSense_CSD_CSHL.c **** 			CapSense_CSD_rawFilterData1[sensor] = filteredRawData;
 388:.\Generated_Source\PSoC4/CapSense_CSD_CSHL.c **** 			
 389:.\Generated_Source\PSoC4/CapSense_CSD_CSHL.c **** 		#elif (CapSense_CSD_RAW_FILTER_MASK & CapSense_CSD_IIR4_FILTER)
 390:.\Generated_Source\PSoC4/CapSense_CSD_CSHL.c **** 			filteredRawData = CapSense_CSD_IIR4Filter(filteredRawData, CapSense_CSD_rawFilterData1[sensor]);
 385              		.loc 1 390 0
 386 0034 614B     		ldr	r3, .L27+12
 387 0036 7A68     		ldr	r2, [r7, #4]
 388 0038 5200     		lsl	r2, r2, #1
 389 003a D35A     		ldrh	r3, [r2, r3]
 390 003c 3C1C     		mov	r4, r7
 391 003e 1034     		add	r4, r4, #16
 392 0040 3A1C     		mov	r2, r7
 393 0042 1032     		add	r2, r2, #16
 394 0044 1288     		ldrh	r2, [r2]
 395 0046 101C     		mov	r0, r2
 396 0048 191C     		mov	r1, r3
 397 004a FFF7FEFF 		bl	CapSense_CSD_IIR4Filter
 398 004e 031C     		mov	r3, r0
 399 0050 2380     		strh	r3, [r4]
 391:.\Generated_Source\PSoC4/CapSense_CSD_CSHL.c **** 			CapSense_CSD_rawFilterData1[sensor] = filteredRawData;
 400              		.loc 1 391 0
 401 0052 5A4B     		ldr	r3, .L27+12
 402 0054 7A68     		ldr	r2, [r7, #4]
 403 0056 5200     		lsl	r2, r2, #1
ARM GAS  C:\Users\Sausy\AppData\Local\Temp\ccLQi9zI.s 			page 15


 404 0058 391C     		mov	r1, r7
 405 005a 1031     		add	r1, r1, #16
 406 005c 0988     		ldrh	r1, [r1]
 407 005e D152     		strh	r1, [r2, r3]
 408              	.L17:
 392:.\Generated_Source\PSoC4/CapSense_CSD_CSHL.c **** 				
 393:.\Generated_Source\PSoC4/CapSense_CSD_CSHL.c **** 		#elif (CapSense_CSD_RAW_FILTER_MASK & CapSense_CSD_JITTER_FILTER)
 394:.\Generated_Source\PSoC4/CapSense_CSD_CSHL.c **** 			filteredRawData = CapSense_CSD_JitterFilter(filteredRawData, CapSense_CSD_rawFilterData1[sensor]
 395:.\Generated_Source\PSoC4/CapSense_CSD_CSHL.c **** 			CapSense_CSD_rawFilterData1[sensor] = filteredRawData;
 396:.\Generated_Source\PSoC4/CapSense_CSD_CSHL.c **** 			
 397:.\Generated_Source\PSoC4/CapSense_CSD_CSHL.c **** 		#elif (CapSense_CSD_RAW_FILTER_MASK & CapSense_CSD_IIR8_FILTER)
 398:.\Generated_Source\PSoC4/CapSense_CSD_CSHL.c **** 			filteredRawData = CapSense_CSD_IIR8Filter(filteredRawData, CapSense_CSD_rawFilterData1[sensor]);
 399:.\Generated_Source\PSoC4/CapSense_CSD_CSHL.c **** 			CapSense_CSD_rawFilterData1[sensor] = filteredRawData;
 400:.\Generated_Source\PSoC4/CapSense_CSD_CSHL.c **** 			
 401:.\Generated_Source\PSoC4/CapSense_CSD_CSHL.c **** 		#elif (CapSense_CSD_RAW_FILTER_MASK & CapSense_CSD_IIR16_FILTER)
 402:.\Generated_Source\PSoC4/CapSense_CSD_CSHL.c **** 			filteredRawData = CapSense_CSD_IIR16Filter(filteredRawData, CapSense_CSD_rawFilterData1[sensor])
 403:.\Generated_Source\PSoC4/CapSense_CSD_CSHL.c **** 			CapSense_CSD_rawFilterData1[sensor] = filteredRawData;
 404:.\Generated_Source\PSoC4/CapSense_CSD_CSHL.c **** 			
 405:.\Generated_Source\PSoC4/CapSense_CSD_CSHL.c **** 		#else
 406:.\Generated_Source\PSoC4/CapSense_CSD_CSHL.c **** 			/* No Raw filters */
 407:.\Generated_Source\PSoC4/CapSense_CSD_CSHL.c **** 		#endif  /* (CapSense_CSD_RAW_FILTER_MASK & CapSense_CSD_MEDIAN_FILTER) */
 408:.\Generated_Source\PSoC4/CapSense_CSD_CSHL.c **** 	}
 409:.\Generated_Source\PSoC4/CapSense_CSD_CSHL.c **** 	#endif  /* (CapSense_CSD_RAW_FILTER_MASK != 0u) */
 410:.\Generated_Source\PSoC4/CapSense_CSD_CSHL.c **** 	
 411:.\Generated_Source\PSoC4/CapSense_CSD_CSHL.c **** 	#if (CapSense_CSD_TUNING_METHOD == CapSense_CSD__TUNING_AUTO)
 412:.\Generated_Source\PSoC4/CapSense_CSD_CSHL.c **** 	    MeasureNoiseEnvelope_P4_v2_10(&CapSense_CSD_config, (uint8)sensor, CapSense_CSD_sensorRaw);
 413:.\Generated_Source\PSoC4/CapSense_CSD_CSHL.c **** 	#endif /* (CapSense_CSD_TUNING_METHOD == CapSense_CSD__TUNING_AUTO) */
 414:.\Generated_Source\PSoC4/CapSense_CSD_CSHL.c **** 
 415:.\Generated_Source\PSoC4/CapSense_CSD_CSHL.c ****     /* Baseline calculation */
 416:.\Generated_Source\PSoC4/CapSense_CSD_CSHL.c ****     /* Calculate difference RawData[cur] - Baseline[prev] */
 417:.\Generated_Source\PSoC4/CapSense_CSD_CSHL.c ****     if(filteredRawData >= CapSense_CSD_sensorBaseline[sensor])
 409              		.loc 1 417 0
 410 0060 574B     		ldr	r3, .L27+16
 411 0062 7A68     		ldr	r2, [r7, #4]
 412 0064 5200     		lsl	r2, r2, #1
 413 0066 D35A     		ldrh	r3, [r2, r3]
 414 0068 3A1C     		mov	r2, r7
 415 006a 1032     		add	r2, r2, #16
 416 006c 1288     		ldrh	r2, [r2]
 417 006e 9A42     		cmp	r2, r3
 418 0070 12D3     		bcc	.L18
 418:.\Generated_Source\PSoC4/CapSense_CSD_CSHL.c ****     {
 419:.\Generated_Source\PSoC4/CapSense_CSD_CSHL.c **** 		CapSense_CSD_lowBaselineResetCnt[sensor] = 0u;	
 419              		.loc 1 419 0
 420 0072 544A     		ldr	r2, .L27+20
 421 0074 7B68     		ldr	r3, [r7, #4]
 422 0076 D318     		add	r3, r2, r3
 423 0078 0022     		mov	r2, #0
 424 007a 1A70     		strb	r2, [r3]
 420:.\Generated_Source\PSoC4/CapSense_CSD_CSHL.c ****         tempRaw = filteredRawData - CapSense_CSD_sensorBaseline[sensor];
 425              		.loc 1 420 0
 426 007c 504B     		ldr	r3, .L27+16
 427 007e 7A68     		ldr	r2, [r7, #4]
 428 0080 5200     		lsl	r2, r2, #1
 429 0082 D25A     		ldrh	r2, [r2, r3]
 430 0084 3B1C     		mov	r3, r7
 431 0086 1233     		add	r3, r3, #18
ARM GAS  C:\Users\Sausy\AppData\Local\Temp\ccLQi9zI.s 			page 16


 432 0088 391C     		mov	r1, r7
 433 008a 1031     		add	r1, r1, #16
 434 008c 0988     		ldrh	r1, [r1]
 435 008e 8A1A     		sub	r2, r1, r2
 436 0090 1A80     		strh	r2, [r3]
 421:.\Generated_Source\PSoC4/CapSense_CSD_CSHL.c ****         sign = 1u;    /* Positive difference - Calculate the Signal */
 437              		.loc 1 421 0
 438 0092 0123     		mov	r3, #1
 439 0094 7B61     		str	r3, [r7, #20]
 440 0096 0CE0     		b	.L19
 441              	.L18:
 422:.\Generated_Source\PSoC4/CapSense_CSD_CSHL.c ****     }
 423:.\Generated_Source\PSoC4/CapSense_CSD_CSHL.c ****     else
 424:.\Generated_Source\PSoC4/CapSense_CSD_CSHL.c ****     {
 425:.\Generated_Source\PSoC4/CapSense_CSD_CSHL.c ****         tempRaw = CapSense_CSD_sensorBaseline[sensor] - filteredRawData;
 442              		.loc 1 425 0
 443 0098 494B     		ldr	r3, .L27+16
 444 009a 7A68     		ldr	r2, [r7, #4]
 445 009c 5200     		lsl	r2, r2, #1
 446 009e D15A     		ldrh	r1, [r2, r3]
 447 00a0 3B1C     		mov	r3, r7
 448 00a2 1233     		add	r3, r3, #18
 449 00a4 3A1C     		mov	r2, r7
 450 00a6 1032     		add	r2, r2, #16
 451 00a8 1288     		ldrh	r2, [r2]
 452 00aa 8A1A     		sub	r2, r1, r2
 453 00ac 1A80     		strh	r2, [r3]
 426:.\Generated_Source\PSoC4/CapSense_CSD_CSHL.c ****         sign = 0u;    /* Negative difference - Do NOT calculate the Signal */
 454              		.loc 1 426 0
 455 00ae 0023     		mov	r3, #0
 456 00b0 7B61     		str	r3, [r7, #20]
 457              	.L19:
 427:.\Generated_Source\PSoC4/CapSense_CSD_CSHL.c ****     }
 428:.\Generated_Source\PSoC4/CapSense_CSD_CSHL.c **** 
 429:.\Generated_Source\PSoC4/CapSense_CSD_CSHL.c **** 	#if (CapSense_CSD_TUNING_METHOD != CapSense_CSD__TUNING_NONE)
 430:.\Generated_Source\PSoC4/CapSense_CSD_CSHL.c **** 	if((sign == 0u) && (tempRaw > (uint16) CapSense_CSD_negativeNoiseThreshold[widget]))
 431:.\Generated_Source\PSoC4/CapSense_CSD_CSHL.c **** 	#else
 432:.\Generated_Source\PSoC4/CapSense_CSD_CSHL.c **** 	if((sign == 0u) && (tempRaw > (uint16) CapSense_CSD_NEGATIVE_NOISE_THRESHOLD))
 458              		.loc 1 432 0
 459 00b2 7B69     		ldr	r3, [r7, #20]
 460 00b4 002B     		cmp	r3, #0
 461 00b6 23D1     		bne	.L20
 462              		.loc 1 432 0 is_stmt 0 discriminator 1
 463 00b8 3B1C     		mov	r3, r7
 464 00ba 1233     		add	r3, r3, #18
 465 00bc 1B88     		ldrh	r3, [r3]
 466 00be 142B     		cmp	r3, #20
 467 00c0 1ED9     		bls	.L20
 433:.\Generated_Source\PSoC4/CapSense_CSD_CSHL.c **** 	#endif /* (CapSense_CSD_TUNING_METHOD != CapSense_CSD__TUNING_NONE) */ 
 434:.\Generated_Source\PSoC4/CapSense_CSD_CSHL.c ****     {
 435:.\Generated_Source\PSoC4/CapSense_CSD_CSHL.c ****         if(CapSense_CSD_lowBaselineResetCnt[sensor] >= CapSense_CSD_lowBaselineReset[sensor])
 468              		.loc 1 435 0 is_stmt 1
 469 00c2 404A     		ldr	r2, .L27+20
 470 00c4 7B68     		ldr	r3, [r7, #4]
 471 00c6 D318     		add	r3, r2, r3
 472 00c8 1A78     		ldrb	r2, [r3]
 473 00ca 3F49     		ldr	r1, .L27+24
ARM GAS  C:\Users\Sausy\AppData\Local\Temp\ccLQi9zI.s 			page 17


 474 00cc 7B68     		ldr	r3, [r7, #4]
 475 00ce CB18     		add	r3, r1, r3
 476 00d0 1B78     		ldrb	r3, [r3]
 477 00d2 9A42     		cmp	r2, r3
 478 00d4 09D3     		bcc	.L21
 436:.\Generated_Source\PSoC4/CapSense_CSD_CSHL.c ****         {
 437:.\Generated_Source\PSoC4/CapSense_CSD_CSHL.c ****             CapSense_CSD_BaseInit(sensor);
 479              		.loc 1 437 0
 480 00d6 7B68     		ldr	r3, [r7, #4]
 481 00d8 181C     		mov	r0, r3
 482 00da FFF7FEFF 		bl	CapSense_CSD_BaseInit
 438:.\Generated_Source\PSoC4/CapSense_CSD_CSHL.c ****             CapSense_CSD_lowBaselineResetCnt[sensor] = 0u;
 483              		.loc 1 438 0
 484 00de 394A     		ldr	r2, .L27+20
 485 00e0 7B68     		ldr	r3, [r7, #4]
 486 00e2 D318     		add	r3, r2, r3
 487 00e4 0022     		mov	r2, #0
 488 00e6 1A70     		strb	r2, [r3]
 435:.\Generated_Source\PSoC4/CapSense_CSD_CSHL.c ****         if(CapSense_CSD_lowBaselineResetCnt[sensor] >= CapSense_CSD_lowBaselineReset[sensor])
 489              		.loc 1 435 0
 490 00e8 46E0     		b	.L23
 491              	.L21:
 439:.\Generated_Source\PSoC4/CapSense_CSD_CSHL.c ****         }
 440:.\Generated_Source\PSoC4/CapSense_CSD_CSHL.c ****         else
 441:.\Generated_Source\PSoC4/CapSense_CSD_CSHL.c ****         {
 442:.\Generated_Source\PSoC4/CapSense_CSD_CSHL.c ****             CapSense_CSD_lowBaselineResetCnt[sensor]++;
 492              		.loc 1 442 0
 493 00ea 364A     		ldr	r2, .L27+20
 494 00ec 7B68     		ldr	r3, [r7, #4]
 495 00ee D318     		add	r3, r2, r3
 496 00f0 1B78     		ldrb	r3, [r3]
 497 00f2 0133     		add	r3, r3, #1
 498 00f4 DAB2     		uxtb	r2, r3
 499 00f6 3349     		ldr	r1, .L27+20
 500 00f8 7B68     		ldr	r3, [r7, #4]
 501 00fa CB18     		add	r3, r1, r3
 502 00fc 1A70     		strb	r2, [r3]
 435:.\Generated_Source\PSoC4/CapSense_CSD_CSHL.c ****         if(CapSense_CSD_lowBaselineResetCnt[sensor] >= CapSense_CSD_lowBaselineReset[sensor])
 503              		.loc 1 435 0
 504 00fe 3BE0     		b	.L23
 505              	.L20:
 443:.\Generated_Source\PSoC4/CapSense_CSD_CSHL.c ****         }
 444:.\Generated_Source\PSoC4/CapSense_CSD_CSHL.c ****     }
 445:.\Generated_Source\PSoC4/CapSense_CSD_CSHL.c ****     else
 446:.\Generated_Source\PSoC4/CapSense_CSD_CSHL.c ****     {
 447:.\Generated_Source\PSoC4/CapSense_CSD_CSHL.c ****         #if (CapSense_CSD_AUTO_RESET == CapSense_CSD_AUTO_RESET_DISABLE)
 448:.\Generated_Source\PSoC4/CapSense_CSD_CSHL.c **** 		#if (CapSense_CSD_TUNING_METHOD != CapSense_CSD__TUNING_NONE)			
 449:.\Generated_Source\PSoC4/CapSense_CSD_CSHL.c **** 			/* Update Baseline if lower than noiseThreshold */
 450:.\Generated_Source\PSoC4/CapSense_CSD_CSHL.c **** 			if ( (tempRaw <= noiseThreshold) || 
 451:.\Generated_Source\PSoC4/CapSense_CSD_CSHL.c **** 			 ((tempRaw < (uint16) CapSense_CSD_negativeNoiseThreshold[widget])
 452:.\Generated_Source\PSoC4/CapSense_CSD_CSHL.c **** 			   && (sign == 0u)))
 453:.\Generated_Source\PSoC4/CapSense_CSD_CSHL.c **** 			{
 454:.\Generated_Source\PSoC4/CapSense_CSD_CSHL.c **** 		#else
 455:.\Generated_Source\PSoC4/CapSense_CSD_CSHL.c **** 			/* Update Baseline if lower than noiseThreshold */
 456:.\Generated_Source\PSoC4/CapSense_CSD_CSHL.c **** 			if ( (tempRaw <= noiseThreshold) || 
 506              		.loc 1 456 0
 507 0100 3A1C     		mov	r2, r7
ARM GAS  C:\Users\Sausy\AppData\Local\Temp\ccLQi9zI.s 			page 18


 508 0102 1232     		add	r2, r2, #18
 509 0104 3B1C     		mov	r3, r7
 510 0106 0C33     		add	r3, r3, #12
 511 0108 1288     		ldrh	r2, [r2]
 512 010a 1B88     		ldrh	r3, [r3]
 513 010c 9A42     		cmp	r2, r3
 514 010e 07D9     		bls	.L24
 515              		.loc 1 456 0 is_stmt 0 discriminator 1
 516 0110 3B1C     		mov	r3, r7
 517 0112 1233     		add	r3, r3, #18
 518 0114 1B88     		ldrh	r3, [r3]
 519 0116 132B     		cmp	r3, #19
 520 0118 2ED8     		bhi	.L23
 457:.\Generated_Source\PSoC4/CapSense_CSD_CSHL.c **** 				 ((tempRaw < (uint16) CapSense_CSD_NEGATIVE_NOISE_THRESHOLD)
 458:.\Generated_Source\PSoC4/CapSense_CSD_CSHL.c **** 				   && (sign == 0u)))
 521              		.loc 1 458 0 is_stmt 1
 522 011a 7B69     		ldr	r3, [r7, #20]
 523 011c 002B     		cmp	r3, #0
 524 011e 2BD1     		bne	.L23
 525              	.L24:
 459:.\Generated_Source\PSoC4/CapSense_CSD_CSHL.c **** 			{
 460:.\Generated_Source\PSoC4/CapSense_CSD_CSHL.c **** 		#endif /* (CapSense_CSD_TUNING_METHOD != CapSense_CSD__TUNING_NONE) */ 
 461:.\Generated_Source\PSoC4/CapSense_CSD_CSHL.c ****         #endif /* (CapSense_CSD_AUTO_RESET == CapSense_CSD_AUTO_RESET_DISABLE) */
 462:.\Generated_Source\PSoC4/CapSense_CSD_CSHL.c ****                 /* Make full Baseline 23 bits */
 463:.\Generated_Source\PSoC4/CapSense_CSD_CSHL.c ****                 calc = (uint32) CapSense_CSD_sensorBaseline[sensor] << 8u;
 526              		.loc 1 463 0
 527 0120 274B     		ldr	r3, .L27+16
 528 0122 7A68     		ldr	r2, [r7, #4]
 529 0124 5200     		lsl	r2, r2, #1
 530 0126 D35A     		ldrh	r3, [r2, r3]
 531 0128 1B02     		lsl	r3, r3, #8
 532 012a BB60     		str	r3, [r7, #8]
 464:.\Generated_Source\PSoC4/CapSense_CSD_CSHL.c ****                 calc |= (uint32) CapSense_CSD_sensorBaselineLow[sensor];
 533              		.loc 1 464 0
 534 012c 274A     		ldr	r2, .L27+28
 535 012e 7B68     		ldr	r3, [r7, #4]
 536 0130 D318     		add	r3, r2, r3
 537 0132 1B78     		ldrb	r3, [r3]
 538 0134 BA68     		ldr	r2, [r7, #8]
 539 0136 1343     		orr	r3, r2
 540 0138 BB60     		str	r3, [r7, #8]
 465:.\Generated_Source\PSoC4/CapSense_CSD_CSHL.c **** 
 466:.\Generated_Source\PSoC4/CapSense_CSD_CSHL.c ****                 /* Add Raw Data to Baseline */
 467:.\Generated_Source\PSoC4/CapSense_CSD_CSHL.c ****                 calc += filteredRawData;
 541              		.loc 1 467 0
 542 013a 3B1C     		mov	r3, r7
 543 013c 1033     		add	r3, r3, #16
 544 013e 1B88     		ldrh	r3, [r3]
 545 0140 BA68     		ldr	r2, [r7, #8]
 546 0142 D318     		add	r3, r2, r3
 547 0144 BB60     		str	r3, [r7, #8]
 468:.\Generated_Source\PSoC4/CapSense_CSD_CSHL.c **** 
 469:.\Generated_Source\PSoC4/CapSense_CSD_CSHL.c ****                 /* Sub the high Baseline */
 470:.\Generated_Source\PSoC4/CapSense_CSD_CSHL.c ****                 calc -= CapSense_CSD_sensorBaseline[sensor];
 548              		.loc 1 470 0
 549 0146 1E4B     		ldr	r3, .L27+16
 550 0148 7A68     		ldr	r2, [r7, #4]
ARM GAS  C:\Users\Sausy\AppData\Local\Temp\ccLQi9zI.s 			page 19


 551 014a 5200     		lsl	r2, r2, #1
 552 014c D35A     		ldrh	r3, [r2, r3]
 553 014e BA68     		ldr	r2, [r7, #8]
 554 0150 D31A     		sub	r3, r2, r3
 555 0152 BB60     		str	r3, [r7, #8]
 471:.\Generated_Source\PSoC4/CapSense_CSD_CSHL.c **** 
 472:.\Generated_Source\PSoC4/CapSense_CSD_CSHL.c ****                 /* Put Baseline and BaselineLow */
 473:.\Generated_Source\PSoC4/CapSense_CSD_CSHL.c ****                 CapSense_CSD_sensorBaseline[sensor] = ((uint16) (calc >> 8u));
 556              		.loc 1 473 0
 557 0154 BB68     		ldr	r3, [r7, #8]
 558 0156 1B0A     		lsr	r3, r3, #8
 559 0158 99B2     		uxth	r1, r3
 560 015a 194B     		ldr	r3, .L27+16
 561 015c 7A68     		ldr	r2, [r7, #4]
 562 015e 5200     		lsl	r2, r2, #1
 563 0160 D152     		strh	r1, [r2, r3]
 474:.\Generated_Source\PSoC4/CapSense_CSD_CSHL.c ****                 CapSense_CSD_sensorBaselineLow[sensor] = ((uint8) calc);
 564              		.loc 1 474 0
 565 0162 BB68     		ldr	r3, [r7, #8]
 566 0164 DAB2     		uxtb	r2, r3
 567 0166 1949     		ldr	r1, .L27+28
 568 0168 7B68     		ldr	r3, [r7, #4]
 569 016a CB18     		add	r3, r1, r3
 570 016c 1A70     		strb	r2, [r3]
 475:.\Generated_Source\PSoC4/CapSense_CSD_CSHL.c **** 
 476:.\Generated_Source\PSoC4/CapSense_CSD_CSHL.c ****                 CapSense_CSD_lowBaselineResetCnt[sensor] = 0u;
 571              		.loc 1 476 0
 572 016e 154A     		ldr	r2, .L27+20
 573 0170 7B68     		ldr	r3, [r7, #4]
 574 0172 D318     		add	r3, r2, r3
 575 0174 0022     		mov	r2, #0
 576 0176 1A70     		strb	r2, [r3]
 577              	.L23:
 477:.\Generated_Source\PSoC4/CapSense_CSD_CSHL.c ****         #if (CapSense_CSD_AUTO_RESET == CapSense_CSD_AUTO_RESET_DISABLE)
 478:.\Generated_Source\PSoC4/CapSense_CSD_CSHL.c ****             }
 479:.\Generated_Source\PSoC4/CapSense_CSD_CSHL.c ****         #endif /* (CapSense_CSD_AUTO_RESET == CapSense_CSD_AUTO_RESET_DISABLE) */
 480:.\Generated_Source\PSoC4/CapSense_CSD_CSHL.c ****     }
 481:.\Generated_Source\PSoC4/CapSense_CSD_CSHL.c **** 
 482:.\Generated_Source\PSoC4/CapSense_CSD_CSHL.c ****     /* Calculate Signal if positive difference > noiseThreshold */
 483:.\Generated_Source\PSoC4/CapSense_CSD_CSHL.c ****     if((tempRaw > (uint16) noiseThreshold) && (sign != 0u))
 578              		.loc 1 483 0
 579 0178 3A1C     		mov	r2, r7
 580 017a 1232     		add	r2, r2, #18
 581 017c 3B1C     		mov	r3, r7
 582 017e 0C33     		add	r3, r3, #12
 583 0180 1288     		ldrh	r2, [r2]
 584 0182 1B88     		ldrh	r3, [r3]
 585 0184 9A42     		cmp	r2, r3
 586 0186 0AD9     		bls	.L25
 587              		.loc 1 483 0 is_stmt 0 discriminator 1
 588 0188 7B69     		ldr	r3, [r7, #20]
 589 018a 002B     		cmp	r3, #0
 590 018c 07D0     		beq	.L25
 484:.\Generated_Source\PSoC4/CapSense_CSD_CSHL.c ****     {
 485:.\Generated_Source\PSoC4/CapSense_CSD_CSHL.c ****         #if (CapSense_CSD_SIGNAL_SIZE == CapSense_CSD_SIGNAL_SIZE_UINT8)
 486:.\Generated_Source\PSoC4/CapSense_CSD_CSHL.c ****             /* Over flow defence for uint8 */
 487:.\Generated_Source\PSoC4/CapSense_CSD_CSHL.c ****             if (tempRaw > 0xFFu)
ARM GAS  C:\Users\Sausy\AppData\Local\Temp\ccLQi9zI.s 			page 20


 488:.\Generated_Source\PSoC4/CapSense_CSD_CSHL.c ****             {
 489:.\Generated_Source\PSoC4/CapSense_CSD_CSHL.c ****                 CapSense_CSD_sensorSignal[sensor] = 0xFFu;
 490:.\Generated_Source\PSoC4/CapSense_CSD_CSHL.c ****             }    
 491:.\Generated_Source\PSoC4/CapSense_CSD_CSHL.c ****             else 
 492:.\Generated_Source\PSoC4/CapSense_CSD_CSHL.c ****             {
 493:.\Generated_Source\PSoC4/CapSense_CSD_CSHL.c ****                 CapSense_CSD_sensorSignal[sensor] = ((uint8) tempRaw);
 494:.\Generated_Source\PSoC4/CapSense_CSD_CSHL.c ****             }
 495:.\Generated_Source\PSoC4/CapSense_CSD_CSHL.c ****         #else
 496:.\Generated_Source\PSoC4/CapSense_CSD_CSHL.c ****             CapSense_CSD_sensorSignal[sensor] = ((uint16) tempRaw);
 591              		.loc 1 496 0 is_stmt 1
 592 018e 104B     		ldr	r3, .L27+32
 593 0190 7A68     		ldr	r2, [r7, #4]
 594 0192 5200     		lsl	r2, r2, #1
 595 0194 391C     		mov	r1, r7
 596 0196 1231     		add	r1, r1, #18
 597 0198 0988     		ldrh	r1, [r1]
 598 019a D152     		strh	r1, [r2, r3]
 599 019c 04E0     		b	.L16
 600              	.L25:
 497:.\Generated_Source\PSoC4/CapSense_CSD_CSHL.c ****         #endif  /* (CapSense_CSD_SIGNAL_SIZE == CapSense_CSD_SIGNAL_SIZE_UINT8) */
 498:.\Generated_Source\PSoC4/CapSense_CSD_CSHL.c ****     }
 499:.\Generated_Source\PSoC4/CapSense_CSD_CSHL.c ****     else
 500:.\Generated_Source\PSoC4/CapSense_CSD_CSHL.c ****     {
 501:.\Generated_Source\PSoC4/CapSense_CSD_CSHL.c ****         /* Signal is zero */
 502:.\Generated_Source\PSoC4/CapSense_CSD_CSHL.c ****         CapSense_CSD_sensorSignal[sensor] = 0u;
 601              		.loc 1 502 0
 602 019e 0C4B     		ldr	r3, .L27+32
 603 01a0 7A68     		ldr	r2, [r7, #4]
 604 01a2 5200     		lsl	r2, r2, #1
 605 01a4 0021     		mov	r1, #0
 606 01a6 D152     		strh	r1, [r2, r3]
 607              	.L16:
 503:.\Generated_Source\PSoC4/CapSense_CSD_CSHL.c ****     }
 504:.\Generated_Source\PSoC4/CapSense_CSD_CSHL.c **** 
 505:.\Generated_Source\PSoC4/CapSense_CSD_CSHL.c ****     #if (CapSense_CSD_TOTAL_GENERICS_COUNT)
 506:.\Generated_Source\PSoC4/CapSense_CSD_CSHL.c ****         /* Exclude generic widget */
 507:.\Generated_Source\PSoC4/CapSense_CSD_CSHL.c ****         }
 508:.\Generated_Source\PSoC4/CapSense_CSD_CSHL.c ****     #endif  /* CapSense_CSD_TOTAL_GENERICS_COUNT */
 509:.\Generated_Source\PSoC4/CapSense_CSD_CSHL.c **** }
 608              		.loc 1 509 0
 609 01a8 BD46     		mov	sp, r7
 610 01aa 07B0     		add	sp, sp, #28
 611              		@ sp needed
 612 01ac 90BD     		pop	{r4, r7, pc}
 613              	.L28:
 614 01ae C046     		.align	2
 615              	.L27:
 616 01b0 00000000 		.word	CapSense_CSD_widgetNumber
 617 01b4 00000000 		.word	CapSense_CSD_sensorRaw
 618 01b8 00000000 		.word	CapSense_CSD_enableRawFilters
 619 01bc 00000000 		.word	CapSense_CSD_rawFilterData1
 620 01c0 00000000 		.word	CapSense_CSD_sensorBaseline
 621 01c4 00000000 		.word	CapSense_CSD_lowBaselineResetCnt
 622 01c8 00000000 		.word	CapSense_CSD_lowBaselineReset
 623 01cc 00000000 		.word	CapSense_CSD_sensorBaselineLow
 624 01d0 00000000 		.word	CapSense_CSD_sensorSignal
 625              		.cfi_endproc
ARM GAS  C:\Users\Sausy\AppData\Local\Temp\ccLQi9zI.s 			page 21


 626              	.LFE37:
 627              		.size	CapSense_CSD_UpdateBaselineNoThreshold, .-CapSense_CSD_UpdateBaselineNoThreshold
 628              		.section	.text.CapSense_CSD_UpdateSensorBaseline,"ax",%progbits
 629              		.align	2
 630              		.global	CapSense_CSD_UpdateSensorBaseline
 631              		.code	16
 632              		.thumb_func
 633              		.type	CapSense_CSD_UpdateSensorBaseline, %function
 634              	CapSense_CSD_UpdateSensorBaseline:
 635              	.LFB38:
 510:.\Generated_Source\PSoC4/CapSense_CSD_CSHL.c **** 
 511:.\Generated_Source\PSoC4/CapSense_CSD_CSHL.c **** 
 512:.\Generated_Source\PSoC4/CapSense_CSD_CSHL.c **** /*******************************************************************************
 513:.\Generated_Source\PSoC4/CapSense_CSD_CSHL.c **** * Function Name: CapSense_CSD_UpdateSensorBaseline
 514:.\Generated_Source\PSoC4/CapSense_CSD_CSHL.c **** ********************************************************************************
 515:.\Generated_Source\PSoC4/CapSense_CSD_CSHL.c **** *
 516:.\Generated_Source\PSoC4/CapSense_CSD_CSHL.c **** * Summary:
 517:.\Generated_Source\PSoC4/CapSense_CSD_CSHL.c **** *  Updates the CapSense_CSD_sensorBaseline[sensor] array element using the 
 518:.\Generated_Source\PSoC4/CapSense_CSD_CSHL.c **** *  LP filter with k = 256. The signal calculates the difference of count by 
 519:.\Generated_Source\PSoC4/CapSense_CSD_CSHL.c **** *  subtracting the previous baseline from the current raw count value and stores
 520:.\Generated_Source\PSoC4/CapSense_CSD_CSHL.c **** *  it in CapSense_CSD_sensorSignal[sensor]. 
 521:.\Generated_Source\PSoC4/CapSense_CSD_CSHL.c **** *  If the auto reset option is enabled, the baseline updated regards the noise threshold. 
 522:.\Generated_Source\PSoC4/CapSense_CSD_CSHL.c **** *  If the auto reset option is disabled, the baseline stops updating. 
 523:.\Generated_Source\PSoC4/CapSense_CSD_CSHL.c **** *  Baseline is loaded with raw count value if a signal is greater than zero and  
 524:.\Generated_Source\PSoC4/CapSense_CSD_CSHL.c **** *  if signal is less than noise threshold.
 525:.\Generated_Source\PSoC4/CapSense_CSD_CSHL.c **** *  Raw data filters are applied to the values if enabled before baseline 
 526:.\Generated_Source\PSoC4/CapSense_CSD_CSHL.c **** *  calculation.
 527:.\Generated_Source\PSoC4/CapSense_CSD_CSHL.c **** *  This API updates the thresholds in the Smartsense Mode.
 528:.\Generated_Source\PSoC4/CapSense_CSD_CSHL.c **** *
 529:.\Generated_Source\PSoC4/CapSense_CSD_CSHL.c **** * Parameters:
 530:.\Generated_Source\PSoC4/CapSense_CSD_CSHL.c **** *  sensor:  Sensor number.
 531:.\Generated_Source\PSoC4/CapSense_CSD_CSHL.c **** *
 532:.\Generated_Source\PSoC4/CapSense_CSD_CSHL.c **** * Return:
 533:.\Generated_Source\PSoC4/CapSense_CSD_CSHL.c **** *  None
 534:.\Generated_Source\PSoC4/CapSense_CSD_CSHL.c **** *
 535:.\Generated_Source\PSoC4/CapSense_CSD_CSHL.c **** * Global Variables:
 536:.\Generated_Source\PSoC4/CapSense_CSD_CSHL.c **** *  CapSense_CSD_widgetNumber[]  - stores widget numbers.
 537:.\Generated_Source\PSoC4/CapSense_CSD_CSHL.c **** * 
 538:.\Generated_Source\PSoC4/CapSense_CSD_CSHL.c **** * Side Effects:
 539:.\Generated_Source\PSoC4/CapSense_CSD_CSHL.c **** *  None
 540:.\Generated_Source\PSoC4/CapSense_CSD_CSHL.c **** * 
 541:.\Generated_Source\PSoC4/CapSense_CSD_CSHL.c **** *******************************************************************************/
 542:.\Generated_Source\PSoC4/CapSense_CSD_CSHL.c ****  void CapSense_CSD_UpdateSensorBaseline(uint32 sensor)
 543:.\Generated_Source\PSoC4/CapSense_CSD_CSHL.c **** {
 636              		.loc 1 543 0
 637              		.cfi_startproc
 638 0000 80B5     		push	{r7, lr}
 639              		.cfi_def_cfa_offset 8
 640              		.cfi_offset 7, -8
 641              		.cfi_offset 14, -4
 642 0002 82B0     		sub	sp, sp, #8
 643              		.cfi_def_cfa_offset 16
 644 0004 00AF     		add	r7, sp, #0
 645              		.cfi_def_cfa_register 7
 646 0006 7860     		str	r0, [r7, #4]
 544:.\Generated_Source\PSoC4/CapSense_CSD_CSHL.c ****     #if (CapSense_CSD_TOTAL_GENERICS_COUNT)
 545:.\Generated_Source\PSoC4/CapSense_CSD_CSHL.c **** 		uint32 widget;
ARM GAS  C:\Users\Sausy\AppData\Local\Temp\ccLQi9zI.s 			page 22


 546:.\Generated_Source\PSoC4/CapSense_CSD_CSHL.c **** 		
 547:.\Generated_Source\PSoC4/CapSense_CSD_CSHL.c **** 		widget = CapSense_CSD_widgetNumber[sensor];
 548:.\Generated_Source\PSoC4/CapSense_CSD_CSHL.c **** 	
 549:.\Generated_Source\PSoC4/CapSense_CSD_CSHL.c ****         /* Exclude generic widget */
 550:.\Generated_Source\PSoC4/CapSense_CSD_CSHL.c ****         if(widget < CapSense_CSD_END_OF_WIDGETS_INDEX)
 551:.\Generated_Source\PSoC4/CapSense_CSD_CSHL.c ****         {
 552:.\Generated_Source\PSoC4/CapSense_CSD_CSHL.c ****     #endif  /* CapSense_CSD_TOTAL_GENERICS_COUNT */
 553:.\Generated_Source\PSoC4/CapSense_CSD_CSHL.c **** 
 554:.\Generated_Source\PSoC4/CapSense_CSD_CSHL.c ****     #if (CapSense_CSD_TUNING_METHOD == CapSense_CSD__TUNING_AUTO)
 555:.\Generated_Source\PSoC4/CapSense_CSD_CSHL.c ****     	CapSense_CSD_UpdateThresholds(sensor);
 556:.\Generated_Source\PSoC4/CapSense_CSD_CSHL.c ****     #endif /* (CapSense_CSD_TUNING_METHOD == CapSense_CSD__TUNING_AUTO) */
 557:.\Generated_Source\PSoC4/CapSense_CSD_CSHL.c **** 
 558:.\Generated_Source\PSoC4/CapSense_CSD_CSHL.c ****     CapSense_CSD_UpdateBaselineNoThreshold(sensor);
 647              		.loc 1 558 0
 648 0008 7B68     		ldr	r3, [r7, #4]
 649 000a 181C     		mov	r0, r3
 650 000c FFF7FEFF 		bl	CapSense_CSD_UpdateBaselineNoThreshold
 559:.\Generated_Source\PSoC4/CapSense_CSD_CSHL.c ****     
 560:.\Generated_Source\PSoC4/CapSense_CSD_CSHL.c ****     #if (CapSense_CSD_TOTAL_GENERICS_COUNT)
 561:.\Generated_Source\PSoC4/CapSense_CSD_CSHL.c ****         /* Exclude generic widget */
 562:.\Generated_Source\PSoC4/CapSense_CSD_CSHL.c ****         }
 563:.\Generated_Source\PSoC4/CapSense_CSD_CSHL.c ****     #endif  /* CapSense_CSD_TOTAL_GENERICS_COUNT */
 564:.\Generated_Source\PSoC4/CapSense_CSD_CSHL.c **** }
 651              		.loc 1 564 0
 652 0010 BD46     		mov	sp, r7
 653 0012 02B0     		add	sp, sp, #8
 654              		@ sp needed
 655 0014 80BD     		pop	{r7, pc}
 656              		.cfi_endproc
 657              	.LFE38:
 658              		.size	CapSense_CSD_UpdateSensorBaseline, .-CapSense_CSD_UpdateSensorBaseline
 659 0016 C046     		.section	.text.CapSense_CSD_UpdateEnabledBaselines,"ax",%progbits
 660              		.align	2
 661              		.global	CapSense_CSD_UpdateEnabledBaselines
 662              		.code	16
 663              		.thumb_func
 664              		.type	CapSense_CSD_UpdateEnabledBaselines, %function
 665              	CapSense_CSD_UpdateEnabledBaselines:
 666              	.LFB39:
 565:.\Generated_Source\PSoC4/CapSense_CSD_CSHL.c **** 
 566:.\Generated_Source\PSoC4/CapSense_CSD_CSHL.c **** 
 567:.\Generated_Source\PSoC4/CapSense_CSD_CSHL.c **** /*******************************************************************************
 568:.\Generated_Source\PSoC4/CapSense_CSD_CSHL.c **** * Function Name: CapSense_CSD_UpdateEnabledBaselines
 569:.\Generated_Source\PSoC4/CapSense_CSD_CSHL.c **** ********************************************************************************
 570:.\Generated_Source\PSoC4/CapSense_CSD_CSHL.c **** *
 571:.\Generated_Source\PSoC4/CapSense_CSD_CSHL.c **** * Summary:
 572:.\Generated_Source\PSoC4/CapSense_CSD_CSHL.c **** *  Checks CapSense_CSD_sensorEnableMask[] array and calls the 
 573:.\Generated_Source\PSoC4/CapSense_CSD_CSHL.c **** *  CapSense_CSD_UpdateSensorBaseline function to update the baselines 
 574:.\Generated_Source\PSoC4/CapSense_CSD_CSHL.c **** *  for the enabled sensors.
 575:.\Generated_Source\PSoC4/CapSense_CSD_CSHL.c **** *
 576:.\Generated_Source\PSoC4/CapSense_CSD_CSHL.c **** * Parameters:
 577:.\Generated_Source\PSoC4/CapSense_CSD_CSHL.c **** *  None
 578:.\Generated_Source\PSoC4/CapSense_CSD_CSHL.c **** *
 579:.\Generated_Source\PSoC4/CapSense_CSD_CSHL.c **** * Return:
 580:.\Generated_Source\PSoC4/CapSense_CSD_CSHL.c **** *  None
 581:.\Generated_Source\PSoC4/CapSense_CSD_CSHL.c **** *
 582:.\Generated_Source\PSoC4/CapSense_CSD_CSHL.c **** * Global Variables:
ARM GAS  C:\Users\Sausy\AppData\Local\Temp\ccLQi9zI.s 			page 23


 583:.\Generated_Source\PSoC4/CapSense_CSD_CSHL.c **** *  CapSense_CSD_sensorEnableMask[] - used to store the sensor scanning 
 584:.\Generated_Source\PSoC4/CapSense_CSD_CSHL.c **** *  state.
 585:.\Generated_Source\PSoC4/CapSense_CSD_CSHL.c **** *  CapSense_CSD_sensorEnableMask[0] contains the masked bits for sensors 
 586:.\Generated_Source\PSoC4/CapSense_CSD_CSHL.c **** *   0 through 7 (sensor 0 is bit 0, sensor 1 is bit 1).
 587:.\Generated_Source\PSoC4/CapSense_CSD_CSHL.c **** *  CapSense_CSD_sensorEnableMask[1] contains the masked bits for 
 588:.\Generated_Source\PSoC4/CapSense_CSD_CSHL.c **** *  sensors 8 through 15 (if needed), and so on.
 589:.\Generated_Source\PSoC4/CapSense_CSD_CSHL.c **** *  0 - sensor doesn't scan by CapSense_CSD_ScanEnabledWidgets().
 590:.\Generated_Source\PSoC4/CapSense_CSD_CSHL.c **** *  1 - sensor scans by CapSense_CSD_ScanEnabledWidgets().
 591:.\Generated_Source\PSoC4/CapSense_CSD_CSHL.c **** * 
 592:.\Generated_Source\PSoC4/CapSense_CSD_CSHL.c **** * Side Effects:
 593:.\Generated_Source\PSoC4/CapSense_CSD_CSHL.c **** *  None
 594:.\Generated_Source\PSoC4/CapSense_CSD_CSHL.c **** * 
 595:.\Generated_Source\PSoC4/CapSense_CSD_CSHL.c **** *******************************************************************************/
 596:.\Generated_Source\PSoC4/CapSense_CSD_CSHL.c ****  void CapSense_CSD_UpdateEnabledBaselines(void)
 597:.\Generated_Source\PSoC4/CapSense_CSD_CSHL.c **** {
 667              		.loc 1 597 0
 668              		.cfi_startproc
 669 0000 80B5     		push	{r7, lr}
 670              		.cfi_def_cfa_offset 8
 671              		.cfi_offset 7, -8
 672              		.cfi_offset 14, -4
 673 0002 82B0     		sub	sp, sp, #8
 674              		.cfi_def_cfa_offset 16
 675 0004 00AF     		add	r7, sp, #0
 676              		.cfi_def_cfa_register 7
 598:.\Generated_Source\PSoC4/CapSense_CSD_CSHL.c ****     uint32 i;
 599:.\Generated_Source\PSoC4/CapSense_CSD_CSHL.c ****     uint32 isSensorEnabled;
 600:.\Generated_Source\PSoC4/CapSense_CSD_CSHL.c ****     
 601:.\Generated_Source\PSoC4/CapSense_CSD_CSHL.c ****     for(i = 0u; i < CapSense_CSD_TOTAL_SENSOR_COUNT; i++)
 677              		.loc 1 601 0
 678 0006 0023     		mov	r3, #0
 679 0008 7B60     		str	r3, [r7, #4]
 680 000a 11E0     		b	.L31
 681              	.L33:
 602:.\Generated_Source\PSoC4/CapSense_CSD_CSHL.c ****     {
 603:.\Generated_Source\PSoC4/CapSense_CSD_CSHL.c ****         isSensorEnabled = CapSense_CSD_GetBitValue(CapSense_CSD_sensorEnableMask, i);
 682              		.loc 1 603 0
 683 000c 0B4A     		ldr	r2, .L34
 684 000e 7B68     		ldr	r3, [r7, #4]
 685 0010 101C     		mov	r0, r2
 686 0012 191C     		mov	r1, r3
 687 0014 FFF7FEFF 		bl	CapSense_CSD_GetBitValue
 688 0018 031C     		mov	r3, r0
 689 001a 3B60     		str	r3, [r7]
 604:.\Generated_Source\PSoC4/CapSense_CSD_CSHL.c ****         
 605:.\Generated_Source\PSoC4/CapSense_CSD_CSHL.c ****         if(0u != isSensorEnabled)
 690              		.loc 1 605 0
 691 001c 3B68     		ldr	r3, [r7]
 692 001e 002B     		cmp	r3, #0
 693 0020 03D0     		beq	.L32
 606:.\Generated_Source\PSoC4/CapSense_CSD_CSHL.c ****         {
 607:.\Generated_Source\PSoC4/CapSense_CSD_CSHL.c ****             CapSense_CSD_UpdateSensorBaseline(i);
 694              		.loc 1 607 0
 695 0022 7B68     		ldr	r3, [r7, #4]
 696 0024 181C     		mov	r0, r3
 697 0026 FFF7FEFF 		bl	CapSense_CSD_UpdateSensorBaseline
 698              	.L32:
ARM GAS  C:\Users\Sausy\AppData\Local\Temp\ccLQi9zI.s 			page 24


 601:.\Generated_Source\PSoC4/CapSense_CSD_CSHL.c ****     for(i = 0u; i < CapSense_CSD_TOTAL_SENSOR_COUNT; i++)
 699              		.loc 1 601 0
 700 002a 7B68     		ldr	r3, [r7, #4]
 701 002c 0133     		add	r3, r3, #1
 702 002e 7B60     		str	r3, [r7, #4]
 703              	.L31:
 601:.\Generated_Source\PSoC4/CapSense_CSD_CSHL.c ****     for(i = 0u; i < CapSense_CSD_TOTAL_SENSOR_COUNT; i++)
 704              		.loc 1 601 0 is_stmt 0 discriminator 1
 705 0030 7B68     		ldr	r3, [r7, #4]
 706 0032 002B     		cmp	r3, #0
 707 0034 EAD0     		beq	.L33
 608:.\Generated_Source\PSoC4/CapSense_CSD_CSHL.c ****         }
 609:.\Generated_Source\PSoC4/CapSense_CSD_CSHL.c ****     }
 610:.\Generated_Source\PSoC4/CapSense_CSD_CSHL.c **** }
 708              		.loc 1 610 0 is_stmt 1
 709 0036 BD46     		mov	sp, r7
 710 0038 02B0     		add	sp, sp, #8
 711              		@ sp needed
 712 003a 80BD     		pop	{r7, pc}
 713              	.L35:
 714              		.align	2
 715              	.L34:
 716 003c 00000000 		.word	CapSense_CSD_sensorEnableMask
 717              		.cfi_endproc
 718              	.LFE39:
 719              		.size	CapSense_CSD_UpdateEnabledBaselines, .-CapSense_CSD_UpdateEnabledBaselines
 720              		.section	.text.CapSense_CSD_UpdateWidgetBaseline,"ax",%progbits
 721              		.align	2
 722              		.global	CapSense_CSD_UpdateWidgetBaseline
 723              		.code	16
 724              		.thumb_func
 725              		.type	CapSense_CSD_UpdateWidgetBaseline, %function
 726              	CapSense_CSD_UpdateWidgetBaseline:
 727              	.LFB40:
 611:.\Generated_Source\PSoC4/CapSense_CSD_CSHL.c **** 
 612:.\Generated_Source\PSoC4/CapSense_CSD_CSHL.c **** /*******************************************************************************
 613:.\Generated_Source\PSoC4/CapSense_CSD_CSHL.c **** * Function Name: CapSense_CSD_UpdateWidgetBaseline
 614:.\Generated_Source\PSoC4/CapSense_CSD_CSHL.c **** ********************************************************************************
 615:.\Generated_Source\PSoC4/CapSense_CSD_CSHL.c **** *
 616:.\Generated_Source\PSoC4/CapSense_CSD_CSHL.c **** * Summary:
 617:.\Generated_Source\PSoC4/CapSense_CSD_CSHL.c **** *  Checks CapSense_CSD_sensorEnableMask[] array and calls the 
 618:.\Generated_Source\PSoC4/CapSense_CSD_CSHL.c **** *  CapSense_CSD_UpdateSensorBaseline function to update the baselines 
 619:.\Generated_Source\PSoC4/CapSense_CSD_CSHL.c **** *  for the enabled sensors that belong to widget.
 620:.\Generated_Source\PSoC4/CapSense_CSD_CSHL.c **** *
 621:.\Generated_Source\PSoC4/CapSense_CSD_CSHL.c **** * Parameters:
 622:.\Generated_Source\PSoC4/CapSense_CSD_CSHL.c **** *  widget:  Widget number.
 623:.\Generated_Source\PSoC4/CapSense_CSD_CSHL.c **** *
 624:.\Generated_Source\PSoC4/CapSense_CSD_CSHL.c **** * Return:
 625:.\Generated_Source\PSoC4/CapSense_CSD_CSHL.c **** *  None
 626:.\Generated_Source\PSoC4/CapSense_CSD_CSHL.c **** *
 627:.\Generated_Source\PSoC4/CapSense_CSD_CSHL.c **** * Global Variables:
 628:.\Generated_Source\PSoC4/CapSense_CSD_CSHL.c **** *  CapSense_CSD_sensorEnableMask[] - used to store the sensor scanning 
 629:.\Generated_Source\PSoC4/CapSense_CSD_CSHL.c **** *  state.
 630:.\Generated_Source\PSoC4/CapSense_CSD_CSHL.c **** *  CapSense_CSD_sensorEnableMask[0] contains the masked bits for sensors 
 631:.\Generated_Source\PSoC4/CapSense_CSD_CSHL.c **** *   0 through 7 (sensor 0 is bit 0, sensor 1 is bit 1).
 632:.\Generated_Source\PSoC4/CapSense_CSD_CSHL.c **** *  CapSense_CSD_sensorEnableMask[1] contains the masked bits for 
 633:.\Generated_Source\PSoC4/CapSense_CSD_CSHL.c **** *  sensors 8 through 15 (if needed), and so on.
ARM GAS  C:\Users\Sausy\AppData\Local\Temp\ccLQi9zI.s 			page 25


 634:.\Generated_Source\PSoC4/CapSense_CSD_CSHL.c **** *  0 - sensor doesn't scan by CapSense_CSD_ScanEnabledWidgets().
 635:.\Generated_Source\PSoC4/CapSense_CSD_CSHL.c **** *  1 - sensor scans by CapSense_CSD_ScanEnabledWidgets().
 636:.\Generated_Source\PSoC4/CapSense_CSD_CSHL.c **** * 
 637:.\Generated_Source\PSoC4/CapSense_CSD_CSHL.c **** * Side Effects:
 638:.\Generated_Source\PSoC4/CapSense_CSD_CSHL.c **** *  None
 639:.\Generated_Source\PSoC4/CapSense_CSD_CSHL.c **** * 
 640:.\Generated_Source\PSoC4/CapSense_CSD_CSHL.c **** *******************************************************************************/
 641:.\Generated_Source\PSoC4/CapSense_CSD_CSHL.c **** void CapSense_CSD_UpdateWidgetBaseline(uint32 widget)
 642:.\Generated_Source\PSoC4/CapSense_CSD_CSHL.c **** {
 728              		.loc 1 642 0
 729              		.cfi_startproc
 730 0000 80B5     		push	{r7, lr}
 731              		.cfi_def_cfa_offset 8
 732              		.cfi_offset 7, -8
 733              		.cfi_offset 14, -4
 734 0002 88B0     		sub	sp, sp, #32
 735              		.cfi_def_cfa_offset 40
 736 0004 00AF     		add	r7, sp, #0
 737              		.cfi_def_cfa_register 7
 738 0006 7860     		str	r0, [r7, #4]
 643:.\Generated_Source\PSoC4/CapSense_CSD_CSHL.c ****     uint32 sensorsPerWidget;
 644:.\Generated_Source\PSoC4/CapSense_CSD_CSHL.c ****     uint32 firstSensor;
 645:.\Generated_Source\PSoC4/CapSense_CSD_CSHL.c ****     uint32 lastSensor;
 646:.\Generated_Source\PSoC4/CapSense_CSD_CSHL.c ****     uint32 i;
 647:.\Generated_Source\PSoC4/CapSense_CSD_CSHL.c ****     uint32 isSensorEnabled;
 648:.\Generated_Source\PSoC4/CapSense_CSD_CSHL.c ****     
 649:.\Generated_Source\PSoC4/CapSense_CSD_CSHL.c **** 	/* Get number of sensors in widget */
 650:.\Generated_Source\PSoC4/CapSense_CSD_CSHL.c **** 	sensorsPerWidget = CapSense_CSD_numberOfSensors[widget];
 739              		.loc 1 650 0
 740 0008 0123     		mov	r3, #1
 741 000a BB61     		str	r3, [r7, #24]
 651:.\Generated_Source\PSoC4/CapSense_CSD_CSHL.c **** 
 652:.\Generated_Source\PSoC4/CapSense_CSD_CSHL.c **** 	/* Get first sensor in widget */
 653:.\Generated_Source\PSoC4/CapSense_CSD_CSHL.c **** 	firstSensor = CapSense_CSD_rawDataIndex[widget];
 742              		.loc 1 653 0
 743 000c 0023     		mov	r3, #0
 744 000e 7B61     		str	r3, [r7, #20]
 654:.\Generated_Source\PSoC4/CapSense_CSD_CSHL.c **** 	
 655:.\Generated_Source\PSoC4/CapSense_CSD_CSHL.c **** 	/* Get last sensor in widget */
 656:.\Generated_Source\PSoC4/CapSense_CSD_CSHL.c **** 	lastSensor = (CapSense_CSD_rawDataIndex[widget] + sensorsPerWidget);
 745              		.loc 1 656 0
 746 0010 0023     		mov	r3, #0
 747 0012 1A1C     		mov	r2, r3
 748 0014 BB69     		ldr	r3, [r7, #24]
 749 0016 D318     		add	r3, r2, r3
 750 0018 3B61     		str	r3, [r7, #16]
 657:.\Generated_Source\PSoC4/CapSense_CSD_CSHL.c **** 	
 658:.\Generated_Source\PSoC4/CapSense_CSD_CSHL.c ****     for(i = firstSensor; i < lastSensor; i++)
 751              		.loc 1 658 0
 752 001a 7B69     		ldr	r3, [r7, #20]
 753 001c FB61     		str	r3, [r7, #28]
 754 001e 11E0     		b	.L37
 755              	.L39:
 659:.\Generated_Source\PSoC4/CapSense_CSD_CSHL.c ****     {
 660:.\Generated_Source\PSoC4/CapSense_CSD_CSHL.c ****         isSensorEnabled = CapSense_CSD_GetBitValue(CapSense_CSD_sensorEnableMask, i);
 756              		.loc 1 660 0
 757 0020 0C4A     		ldr	r2, .L40
ARM GAS  C:\Users\Sausy\AppData\Local\Temp\ccLQi9zI.s 			page 26


 758 0022 FB69     		ldr	r3, [r7, #28]
 759 0024 101C     		mov	r0, r2
 760 0026 191C     		mov	r1, r3
 761 0028 FFF7FEFF 		bl	CapSense_CSD_GetBitValue
 762 002c 031C     		mov	r3, r0
 763 002e FB60     		str	r3, [r7, #12]
 661:.\Generated_Source\PSoC4/CapSense_CSD_CSHL.c ****         
 662:.\Generated_Source\PSoC4/CapSense_CSD_CSHL.c ****         if(0u != isSensorEnabled)
 764              		.loc 1 662 0
 765 0030 FB68     		ldr	r3, [r7, #12]
 766 0032 002B     		cmp	r3, #0
 767 0034 03D0     		beq	.L38
 663:.\Generated_Source\PSoC4/CapSense_CSD_CSHL.c ****         {
 664:.\Generated_Source\PSoC4/CapSense_CSD_CSHL.c ****             CapSense_CSD_UpdateSensorBaseline(i);
 768              		.loc 1 664 0
 769 0036 FB69     		ldr	r3, [r7, #28]
 770 0038 181C     		mov	r0, r3
 771 003a FFF7FEFF 		bl	CapSense_CSD_UpdateSensorBaseline
 772              	.L38:
 658:.\Generated_Source\PSoC4/CapSense_CSD_CSHL.c ****     for(i = firstSensor; i < lastSensor; i++)
 773              		.loc 1 658 0
 774 003e FB69     		ldr	r3, [r7, #28]
 775 0040 0133     		add	r3, r3, #1
 776 0042 FB61     		str	r3, [r7, #28]
 777              	.L37:
 658:.\Generated_Source\PSoC4/CapSense_CSD_CSHL.c ****     for(i = firstSensor; i < lastSensor; i++)
 778              		.loc 1 658 0 is_stmt 0 discriminator 1
 779 0044 FA69     		ldr	r2, [r7, #28]
 780 0046 3B69     		ldr	r3, [r7, #16]
 781 0048 9A42     		cmp	r2, r3
 782 004a E9D3     		bcc	.L39
 665:.\Generated_Source\PSoC4/CapSense_CSD_CSHL.c ****         }
 666:.\Generated_Source\PSoC4/CapSense_CSD_CSHL.c ****     }
 667:.\Generated_Source\PSoC4/CapSense_CSD_CSHL.c **** }
 783              		.loc 1 667 0 is_stmt 1
 784 004c BD46     		mov	sp, r7
 785 004e 08B0     		add	sp, sp, #32
 786              		@ sp needed
 787 0050 80BD     		pop	{r7, pc}
 788              	.L41:
 789 0052 C046     		.align	2
 790              	.L40:
 791 0054 00000000 		.word	CapSense_CSD_sensorEnableMask
 792              		.cfi_endproc
 793              	.LFE40:
 794              		.size	CapSense_CSD_UpdateWidgetBaseline, .-CapSense_CSD_UpdateWidgetBaseline
 795              		.section	.text.CapSense_CSD_GetBaselineData,"ax",%progbits
 796              		.align	2
 797              		.global	CapSense_CSD_GetBaselineData
 798              		.code	16
 799              		.thumb_func
 800              		.type	CapSense_CSD_GetBaselineData, %function
 801              	CapSense_CSD_GetBaselineData:
 802              	.LFB41:
 668:.\Generated_Source\PSoC4/CapSense_CSD_CSHL.c **** 
 669:.\Generated_Source\PSoC4/CapSense_CSD_CSHL.c **** 
 670:.\Generated_Source\PSoC4/CapSense_CSD_CSHL.c **** /*******************************************************************************
ARM GAS  C:\Users\Sausy\AppData\Local\Temp\ccLQi9zI.s 			page 27


 671:.\Generated_Source\PSoC4/CapSense_CSD_CSHL.c **** * Function Name: CapSense_CSD_GetBaselineData
 672:.\Generated_Source\PSoC4/CapSense_CSD_CSHL.c **** ********************************************************************************
 673:.\Generated_Source\PSoC4/CapSense_CSD_CSHL.c **** *
 674:.\Generated_Source\PSoC4/CapSense_CSD_CSHL.c **** * Summary:
 675:.\Generated_Source\PSoC4/CapSense_CSD_CSHL.c **** *  This function reads the sensor baseline from the component.
 676:.\Generated_Source\PSoC4/CapSense_CSD_CSHL.c **** *
 677:.\Generated_Source\PSoC4/CapSense_CSD_CSHL.c **** * Parameters:
 678:.\Generated_Source\PSoC4/CapSense_CSD_CSHL.c **** *  sensor:  Sensor number.
 679:.\Generated_Source\PSoC4/CapSense_CSD_CSHL.c **** *
 680:.\Generated_Source\PSoC4/CapSense_CSD_CSHL.c **** * Return:
 681:.\Generated_Source\PSoC4/CapSense_CSD_CSHL.c **** *  This API returns the baseline value of the sensor indicated by an argument.
 682:.\Generated_Source\PSoC4/CapSense_CSD_CSHL.c **** *
 683:.\Generated_Source\PSoC4/CapSense_CSD_CSHL.c **** * Global Variables:
 684:.\Generated_Source\PSoC4/CapSense_CSD_CSHL.c **** *  CapSense_CSD_sensorBaseline[] - the array with an initial values by scanning
 685:.\Generated_Source\PSoC4/CapSense_CSD_CSHL.c **** * 
 686:.\Generated_Source\PSoC4/CapSense_CSD_CSHL.c **** * Side Effects:
 687:.\Generated_Source\PSoC4/CapSense_CSD_CSHL.c **** *  None
 688:.\Generated_Source\PSoC4/CapSense_CSD_CSHL.c **** *
 689:.\Generated_Source\PSoC4/CapSense_CSD_CSHL.c **** *******************************************************************************/
 690:.\Generated_Source\PSoC4/CapSense_CSD_CSHL.c **** uint16 CapSense_CSD_GetBaselineData(uint32 sensor)
 691:.\Generated_Source\PSoC4/CapSense_CSD_CSHL.c **** {
 803              		.loc 1 691 0
 804              		.cfi_startproc
 805 0000 80B5     		push	{r7, lr}
 806              		.cfi_def_cfa_offset 8
 807              		.cfi_offset 7, -8
 808              		.cfi_offset 14, -4
 809 0002 82B0     		sub	sp, sp, #8
 810              		.cfi_def_cfa_offset 16
 811 0004 00AF     		add	r7, sp, #0
 812              		.cfi_def_cfa_register 7
 813 0006 7860     		str	r0, [r7, #4]
 692:.\Generated_Source\PSoC4/CapSense_CSD_CSHL.c **** 	return (CapSense_CSD_sensorBaseline[sensor]);
 814              		.loc 1 692 0
 815 0008 034B     		ldr	r3, .L44
 816 000a 7A68     		ldr	r2, [r7, #4]
 817 000c 5200     		lsl	r2, r2, #1
 818 000e D35A     		ldrh	r3, [r2, r3]
 693:.\Generated_Source\PSoC4/CapSense_CSD_CSHL.c **** }
 819              		.loc 1 693 0
 820 0010 181C     		mov	r0, r3
 821 0012 BD46     		mov	sp, r7
 822 0014 02B0     		add	sp, sp, #8
 823              		@ sp needed
 824 0016 80BD     		pop	{r7, pc}
 825              	.L45:
 826              		.align	2
 827              	.L44:
 828 0018 00000000 		.word	CapSense_CSD_sensorBaseline
 829              		.cfi_endproc
 830              	.LFE41:
 831              		.size	CapSense_CSD_GetBaselineData, .-CapSense_CSD_GetBaselineData
 832              		.section	.text.CapSense_CSD_SetBaselineData,"ax",%progbits
 833              		.align	2
 834              		.global	CapSense_CSD_SetBaselineData
 835              		.code	16
 836              		.thumb_func
ARM GAS  C:\Users\Sausy\AppData\Local\Temp\ccLQi9zI.s 			page 28


 837              		.type	CapSense_CSD_SetBaselineData, %function
 838              	CapSense_CSD_SetBaselineData:
 839              	.LFB42:
 694:.\Generated_Source\PSoC4/CapSense_CSD_CSHL.c **** 
 695:.\Generated_Source\PSoC4/CapSense_CSD_CSHL.c **** 
 696:.\Generated_Source\PSoC4/CapSense_CSD_CSHL.c **** /*******************************************************************************
 697:.\Generated_Source\PSoC4/CapSense_CSD_CSHL.c **** * Function Name: CapSense_CSD_SetBaselineData
 698:.\Generated_Source\PSoC4/CapSense_CSD_CSHL.c **** ********************************************************************************
 699:.\Generated_Source\PSoC4/CapSense_CSD_CSHL.c **** *
 700:.\Generated_Source\PSoC4/CapSense_CSD_CSHL.c **** * Summary:
 701:.\Generated_Source\PSoC4/CapSense_CSD_CSHL.c **** *  This API writes the data value passed as an argument to the sensor baseline array.
 702:.\Generated_Source\PSoC4/CapSense_CSD_CSHL.c **** *
 703:.\Generated_Source\PSoC4/CapSense_CSD_CSHL.c **** * Parameters:
 704:.\Generated_Source\PSoC4/CapSense_CSD_CSHL.c **** *  sensor:  Sensor number.
 705:.\Generated_Source\PSoC4/CapSense_CSD_CSHL.c **** *  data:    Sensor baseline.
 706:.\Generated_Source\PSoC4/CapSense_CSD_CSHL.c **** *
 707:.\Generated_Source\PSoC4/CapSense_CSD_CSHL.c **** * Return:
 708:.\Generated_Source\PSoC4/CapSense_CSD_CSHL.c **** *  None.
 709:.\Generated_Source\PSoC4/CapSense_CSD_CSHL.c **** *
 710:.\Generated_Source\PSoC4/CapSense_CSD_CSHL.c **** * Global Variables:
 711:.\Generated_Source\PSoC4/CapSense_CSD_CSHL.c **** *  CapSense_CSD_sensorBaseline[] - the array with initial values by scanning
 712:.\Generated_Source\PSoC4/CapSense_CSD_CSHL.c **** * 
 713:.\Generated_Source\PSoC4/CapSense_CSD_CSHL.c **** * Side Effects:
 714:.\Generated_Source\PSoC4/CapSense_CSD_CSHL.c **** *  None
 715:.\Generated_Source\PSoC4/CapSense_CSD_CSHL.c **** *
 716:.\Generated_Source\PSoC4/CapSense_CSD_CSHL.c **** *******************************************************************************/
 717:.\Generated_Source\PSoC4/CapSense_CSD_CSHL.c **** void CapSense_CSD_SetBaselineData(uint32 sensor, uint16 data)
 718:.\Generated_Source\PSoC4/CapSense_CSD_CSHL.c **** {
 840              		.loc 1 718 0
 841              		.cfi_startproc
 842 0000 80B5     		push	{r7, lr}
 843              		.cfi_def_cfa_offset 8
 844              		.cfi_offset 7, -8
 845              		.cfi_offset 14, -4
 846 0002 82B0     		sub	sp, sp, #8
 847              		.cfi_def_cfa_offset 16
 848 0004 00AF     		add	r7, sp, #0
 849              		.cfi_def_cfa_register 7
 850 0006 7860     		str	r0, [r7, #4]
 851 0008 0A1C     		mov	r2, r1
 852 000a BB1C     		add	r3, r7, #2
 853 000c 1A80     		strh	r2, [r3]
 719:.\Generated_Source\PSoC4/CapSense_CSD_CSHL.c **** 	CapSense_CSD_sensorBaseline[sensor] = data;
 854              		.loc 1 719 0
 855 000e 044B     		ldr	r3, .L47
 856 0010 7A68     		ldr	r2, [r7, #4]
 857 0012 5200     		lsl	r2, r2, #1
 858 0014 B91C     		add	r1, r7, #2
 859 0016 0988     		ldrh	r1, [r1]
 860 0018 D152     		strh	r1, [r2, r3]
 720:.\Generated_Source\PSoC4/CapSense_CSD_CSHL.c **** }
 861              		.loc 1 720 0
 862 001a BD46     		mov	sp, r7
 863 001c 02B0     		add	sp, sp, #8
 864              		@ sp needed
 865 001e 80BD     		pop	{r7, pc}
 866              	.L48:
ARM GAS  C:\Users\Sausy\AppData\Local\Temp\ccLQi9zI.s 			page 29


 867              		.align	2
 868              	.L47:
 869 0020 00000000 		.word	CapSense_CSD_sensorBaseline
 870              		.cfi_endproc
 871              	.LFE42:
 872              		.size	CapSense_CSD_SetBaselineData, .-CapSense_CSD_SetBaselineData
 873              		.section	.text.CapSense_CSD_GetDiffCountData,"ax",%progbits
 874              		.align	2
 875              		.global	CapSense_CSD_GetDiffCountData
 876              		.code	16
 877              		.thumb_func
 878              		.type	CapSense_CSD_GetDiffCountData, %function
 879              	CapSense_CSD_GetDiffCountData:
 880              	.LFB43:
 721:.\Generated_Source\PSoC4/CapSense_CSD_CSHL.c **** 
 722:.\Generated_Source\PSoC4/CapSense_CSD_CSHL.c **** 
 723:.\Generated_Source\PSoC4/CapSense_CSD_CSHL.c **** /*******************************************************************************
 724:.\Generated_Source\PSoC4/CapSense_CSD_CSHL.c **** * Function Name: CapSense_CSD_GetDiffCountData
 725:.\Generated_Source\PSoC4/CapSense_CSD_CSHL.c **** ********************************************************************************
 726:.\Generated_Source\PSoC4/CapSense_CSD_CSHL.c **** *
 727:.\Generated_Source\PSoC4/CapSense_CSD_CSHL.c **** * Summary:
 728:.\Generated_Source\PSoC4/CapSense_CSD_CSHL.c **** *  This function returns the Sensor Signal from the component.
 729:.\Generated_Source\PSoC4/CapSense_CSD_CSHL.c **** *
 730:.\Generated_Source\PSoC4/CapSense_CSD_CSHL.c **** * Parameters:
 731:.\Generated_Source\PSoC4/CapSense_CSD_CSHL.c **** *  sensor:  Sensor number.
 732:.\Generated_Source\PSoC4/CapSense_CSD_CSHL.c **** *
 733:.\Generated_Source\PSoC4/CapSense_CSD_CSHL.c **** * Return:
 734:.\Generated_Source\PSoC4/CapSense_CSD_CSHL.c **** *  This API returns the difference count value of the sensor indicated by the 
 735:.\Generated_Source\PSoC4/CapSense_CSD_CSHL.c **** *  argument. 
 736:.\Generated_Source\PSoC4/CapSense_CSD_CSHL.c **** *
 737:.\Generated_Source\PSoC4/CapSense_CSD_CSHL.c **** * Global Variables:
 738:.\Generated_Source\PSoC4/CapSense_CSD_CSHL.c **** *  CapSense_CSD_sensorSignal[] - the array with difference counts for sensors
 739:.\Generated_Source\PSoC4/CapSense_CSD_CSHL.c **** * 
 740:.\Generated_Source\PSoC4/CapSense_CSD_CSHL.c **** * Side Effects:
 741:.\Generated_Source\PSoC4/CapSense_CSD_CSHL.c **** *  None
 742:.\Generated_Source\PSoC4/CapSense_CSD_CSHL.c **** *
 743:.\Generated_Source\PSoC4/CapSense_CSD_CSHL.c **** *******************************************************************************/
 744:.\Generated_Source\PSoC4/CapSense_CSD_CSHL.c **** uint16 CapSense_CSD_GetDiffCountData(uint32 sensor)
 745:.\Generated_Source\PSoC4/CapSense_CSD_CSHL.c **** {
 881              		.loc 1 745 0
 882              		.cfi_startproc
 883 0000 80B5     		push	{r7, lr}
 884              		.cfi_def_cfa_offset 8
 885              		.cfi_offset 7, -8
 886              		.cfi_offset 14, -4
 887 0002 82B0     		sub	sp, sp, #8
 888              		.cfi_def_cfa_offset 16
 889 0004 00AF     		add	r7, sp, #0
 890              		.cfi_def_cfa_register 7
 891 0006 7860     		str	r0, [r7, #4]
 746:.\Generated_Source\PSoC4/CapSense_CSD_CSHL.c **** 	return (CapSense_CSD_sensorSignal[sensor]);
 892              		.loc 1 746 0
 893 0008 034B     		ldr	r3, .L51
 894 000a 7A68     		ldr	r2, [r7, #4]
 895 000c 5200     		lsl	r2, r2, #1
 896 000e D35A     		ldrh	r3, [r2, r3]
 747:.\Generated_Source\PSoC4/CapSense_CSD_CSHL.c **** }
ARM GAS  C:\Users\Sausy\AppData\Local\Temp\ccLQi9zI.s 			page 30


 897              		.loc 1 747 0
 898 0010 181C     		mov	r0, r3
 899 0012 BD46     		mov	sp, r7
 900 0014 02B0     		add	sp, sp, #8
 901              		@ sp needed
 902 0016 80BD     		pop	{r7, pc}
 903              	.L52:
 904              		.align	2
 905              	.L51:
 906 0018 00000000 		.word	CapSense_CSD_sensorSignal
 907              		.cfi_endproc
 908              	.LFE43:
 909              		.size	CapSense_CSD_GetDiffCountData, .-CapSense_CSD_GetDiffCountData
 910              		.section	.text.CapSense_CSD_SetDiffCountData,"ax",%progbits
 911              		.align	2
 912              		.global	CapSense_CSD_SetDiffCountData
 913              		.code	16
 914              		.thumb_func
 915              		.type	CapSense_CSD_SetDiffCountData, %function
 916              	CapSense_CSD_SetDiffCountData:
 917              	.LFB44:
 748:.\Generated_Source\PSoC4/CapSense_CSD_CSHL.c **** 
 749:.\Generated_Source\PSoC4/CapSense_CSD_CSHL.c **** 
 750:.\Generated_Source\PSoC4/CapSense_CSD_CSHL.c **** /*******************************************************************************
 751:.\Generated_Source\PSoC4/CapSense_CSD_CSHL.c **** * Function Name: CapSense_CSD_SetDiffCountData
 752:.\Generated_Source\PSoC4/CapSense_CSD_CSHL.c **** ********************************************************************************
 753:.\Generated_Source\PSoC4/CapSense_CSD_CSHL.c **** *
 754:.\Generated_Source\PSoC4/CapSense_CSD_CSHL.c **** * Summary:
 755:.\Generated_Source\PSoC4/CapSense_CSD_CSHL.c **** *  This API writes the data value passed as an argument to the sensor signal array.
 756:.\Generated_Source\PSoC4/CapSense_CSD_CSHL.c **** *
 757:.\Generated_Source\PSoC4/CapSense_CSD_CSHL.c **** * Parameters:
 758:.\Generated_Source\PSoC4/CapSense_CSD_CSHL.c **** *  sensor:  Sensor number.
 759:.\Generated_Source\PSoC4/CapSense_CSD_CSHL.c **** *  value:   Sensor signal.
 760:.\Generated_Source\PSoC4/CapSense_CSD_CSHL.c **** *
 761:.\Generated_Source\PSoC4/CapSense_CSD_CSHL.c **** * Return:
 762:.\Generated_Source\PSoC4/CapSense_CSD_CSHL.c **** *  None. 
 763:.\Generated_Source\PSoC4/CapSense_CSD_CSHL.c **** *
 764:.\Generated_Source\PSoC4/CapSense_CSD_CSHL.c **** * Global Variables:
 765:.\Generated_Source\PSoC4/CapSense_CSD_CSHL.c **** *  CapSense_CSD_sensorSignal[] - the array with difference counts for sensors
 766:.\Generated_Source\PSoC4/CapSense_CSD_CSHL.c **** * 
 767:.\Generated_Source\PSoC4/CapSense_CSD_CSHL.c **** * Side Effects:
 768:.\Generated_Source\PSoC4/CapSense_CSD_CSHL.c **** *  None
 769:.\Generated_Source\PSoC4/CapSense_CSD_CSHL.c **** *
 770:.\Generated_Source\PSoC4/CapSense_CSD_CSHL.c **** *******************************************************************************/
 771:.\Generated_Source\PSoC4/CapSense_CSD_CSHL.c **** void CapSense_CSD_SetDiffCountData(uint32 sensor, uint16 value)
 772:.\Generated_Source\PSoC4/CapSense_CSD_CSHL.c **** {
 918              		.loc 1 772 0
 919              		.cfi_startproc
 920 0000 80B5     		push	{r7, lr}
 921              		.cfi_def_cfa_offset 8
 922              		.cfi_offset 7, -8
 923              		.cfi_offset 14, -4
 924 0002 82B0     		sub	sp, sp, #8
 925              		.cfi_def_cfa_offset 16
 926 0004 00AF     		add	r7, sp, #0
 927              		.cfi_def_cfa_register 7
 928 0006 7860     		str	r0, [r7, #4]
ARM GAS  C:\Users\Sausy\AppData\Local\Temp\ccLQi9zI.s 			page 31


 929 0008 0A1C     		mov	r2, r1
 930 000a BB1C     		add	r3, r7, #2
 931 000c 1A80     		strh	r2, [r3]
 773:.\Generated_Source\PSoC4/CapSense_CSD_CSHL.c ****     CapSense_CSD_sensorSignal[sensor] = value;
 932              		.loc 1 773 0
 933 000e 044B     		ldr	r3, .L54
 934 0010 7A68     		ldr	r2, [r7, #4]
 935 0012 5200     		lsl	r2, r2, #1
 936 0014 B91C     		add	r1, r7, #2
 937 0016 0988     		ldrh	r1, [r1]
 938 0018 D152     		strh	r1, [r2, r3]
 774:.\Generated_Source\PSoC4/CapSense_CSD_CSHL.c **** }
 939              		.loc 1 774 0
 940 001a BD46     		mov	sp, r7
 941 001c 02B0     		add	sp, sp, #8
 942              		@ sp needed
 943 001e 80BD     		pop	{r7, pc}
 944              	.L55:
 945              		.align	2
 946              	.L54:
 947 0020 00000000 		.word	CapSense_CSD_sensorSignal
 948              		.cfi_endproc
 949              	.LFE44:
 950              		.size	CapSense_CSD_SetDiffCountData, .-CapSense_CSD_SetDiffCountData
 951              		.section	.text.CapSense_CSD_GetFingerThreshold,"ax",%progbits
 952              		.align	2
 953              		.global	CapSense_CSD_GetFingerThreshold
 954              		.code	16
 955              		.thumb_func
 956              		.type	CapSense_CSD_GetFingerThreshold, %function
 957              	CapSense_CSD_GetFingerThreshold:
 958              	.LFB45:
 775:.\Generated_Source\PSoC4/CapSense_CSD_CSHL.c **** 
 776:.\Generated_Source\PSoC4/CapSense_CSD_CSHL.c **** 
 777:.\Generated_Source\PSoC4/CapSense_CSD_CSHL.c **** /*******************************************************************************
 778:.\Generated_Source\PSoC4/CapSense_CSD_CSHL.c **** * Function Name: CapSense_CSD_GetFingerThreshold
 779:.\Generated_Source\PSoC4/CapSense_CSD_CSHL.c **** ********************************************************************************
 780:.\Generated_Source\PSoC4/CapSense_CSD_CSHL.c **** *
 781:.\Generated_Source\PSoC4/CapSense_CSD_CSHL.c **** * Summary:
 782:.\Generated_Source\PSoC4/CapSense_CSD_CSHL.c **** *  This function reads the finger threshold from the component.
 783:.\Generated_Source\PSoC4/CapSense_CSD_CSHL.c **** *
 784:.\Generated_Source\PSoC4/CapSense_CSD_CSHL.c **** * Parameters:
 785:.\Generated_Source\PSoC4/CapSense_CSD_CSHL.c **** *  widget:  widget number.
 786:.\Generated_Source\PSoC4/CapSense_CSD_CSHL.c **** *
 787:.\Generated_Source\PSoC4/CapSense_CSD_CSHL.c **** * Return:
 788:.\Generated_Source\PSoC4/CapSense_CSD_CSHL.c **** *  This API returns the finger threshold of the widget indicated by the argument. 
 789:.\Generated_Source\PSoC4/CapSense_CSD_CSHL.c **** *
 790:.\Generated_Source\PSoC4/CapSense_CSD_CSHL.c **** * Global Variables:
 791:.\Generated_Source\PSoC4/CapSense_CSD_CSHL.c **** *  CapSense_CSD_fingerThreshold[] - This array contains the level of signal 
 792:.\Generated_Source\PSoC4/CapSense_CSD_CSHL.c **** *  for each widget that is determined if a finger is present on the widget.
 793:.\Generated_Source\PSoC4/CapSense_CSD_CSHL.c **** *
 794:.\Generated_Source\PSoC4/CapSense_CSD_CSHL.c **** * Side Effects:
 795:.\Generated_Source\PSoC4/CapSense_CSD_CSHL.c **** *  None
 796:.\Generated_Source\PSoC4/CapSense_CSD_CSHL.c **** *
 797:.\Generated_Source\PSoC4/CapSense_CSD_CSHL.c **** *******************************************************************************/
 798:.\Generated_Source\PSoC4/CapSense_CSD_CSHL.c **** uint16 CapSense_CSD_GetFingerThreshold(uint32 widget)
 799:.\Generated_Source\PSoC4/CapSense_CSD_CSHL.c **** {
ARM GAS  C:\Users\Sausy\AppData\Local\Temp\ccLQi9zI.s 			page 32


 959              		.loc 1 799 0
 960              		.cfi_startproc
 961 0000 80B5     		push	{r7, lr}
 962              		.cfi_def_cfa_offset 8
 963              		.cfi_offset 7, -8
 964              		.cfi_offset 14, -4
 965 0002 82B0     		sub	sp, sp, #8
 966              		.cfi_def_cfa_offset 16
 967 0004 00AF     		add	r7, sp, #0
 968              		.cfi_def_cfa_register 7
 969 0006 7860     		str	r0, [r7, #4]
 800:.\Generated_Source\PSoC4/CapSense_CSD_CSHL.c **** 	return(CapSense_CSD_fingerThreshold[widget]);
 970              		.loc 1 800 0
 971 0008 3223     		mov	r3, #50
 801:.\Generated_Source\PSoC4/CapSense_CSD_CSHL.c **** }
 972              		.loc 1 801 0
 973 000a 181C     		mov	r0, r3
 974 000c BD46     		mov	sp, r7
 975 000e 02B0     		add	sp, sp, #8
 976              		@ sp needed
 977 0010 80BD     		pop	{r7, pc}
 978              		.cfi_endproc
 979              	.LFE45:
 980              		.size	CapSense_CSD_GetFingerThreshold, .-CapSense_CSD_GetFingerThreshold
 981 0012 C046     		.section	.text.CapSense_CSD_GetNoiseThreshold,"ax",%progbits
 982              		.align	2
 983              		.global	CapSense_CSD_GetNoiseThreshold
 984              		.code	16
 985              		.thumb_func
 986              		.type	CapSense_CSD_GetNoiseThreshold, %function
 987              	CapSense_CSD_GetNoiseThreshold:
 988              	.LFB46:
 802:.\Generated_Source\PSoC4/CapSense_CSD_CSHL.c **** 
 803:.\Generated_Source\PSoC4/CapSense_CSD_CSHL.c **** 
 804:.\Generated_Source\PSoC4/CapSense_CSD_CSHL.c **** /*******************************************************************************
 805:.\Generated_Source\PSoC4/CapSense_CSD_CSHL.c **** * Function Name: CapSense_CSD_GetNoiseThreshold
 806:.\Generated_Source\PSoC4/CapSense_CSD_CSHL.c **** ********************************************************************************
 807:.\Generated_Source\PSoC4/CapSense_CSD_CSHL.c **** *
 808:.\Generated_Source\PSoC4/CapSense_CSD_CSHL.c **** * Summary:
 809:.\Generated_Source\PSoC4/CapSense_CSD_CSHL.c **** *  This function reads the noise threshold from the component.
 810:.\Generated_Source\PSoC4/CapSense_CSD_CSHL.c **** *
 811:.\Generated_Source\PSoC4/CapSense_CSD_CSHL.c **** * Parameters:
 812:.\Generated_Source\PSoC4/CapSense_CSD_CSHL.c **** *  widget:  widget number.
 813:.\Generated_Source\PSoC4/CapSense_CSD_CSHL.c **** *
 814:.\Generated_Source\PSoC4/CapSense_CSD_CSHL.c **** * Return:
 815:.\Generated_Source\PSoC4/CapSense_CSD_CSHL.c **** *  This API returns the noise threshold of the widget indicated by the argument. 
 816:.\Generated_Source\PSoC4/CapSense_CSD_CSHL.c **** *
 817:.\Generated_Source\PSoC4/CapSense_CSD_CSHL.c **** * Global Variables:
 818:.\Generated_Source\PSoC4/CapSense_CSD_CSHL.c **** *  CapSense_CSD_noiseThreshold[] - This array contains the level of signal 
 819:.\Generated_Source\PSoC4/CapSense_CSD_CSHL.c **** *  for each widget that determines the level of noise in the capacitive scan.
 820:.\Generated_Source\PSoC4/CapSense_CSD_CSHL.c **** * 
 821:.\Generated_Source\PSoC4/CapSense_CSD_CSHL.c **** * Side Effects:
 822:.\Generated_Source\PSoC4/CapSense_CSD_CSHL.c **** *  None
 823:.\Generated_Source\PSoC4/CapSense_CSD_CSHL.c **** *
 824:.\Generated_Source\PSoC4/CapSense_CSD_CSHL.c **** *******************************************************************************/
 825:.\Generated_Source\PSoC4/CapSense_CSD_CSHL.c **** uint16 CapSense_CSD_GetNoiseThreshold(uint32 widget)
 826:.\Generated_Source\PSoC4/CapSense_CSD_CSHL.c **** {
ARM GAS  C:\Users\Sausy\AppData\Local\Temp\ccLQi9zI.s 			page 33


 989              		.loc 1 826 0
 990              		.cfi_startproc
 991 0000 80B5     		push	{r7, lr}
 992              		.cfi_def_cfa_offset 8
 993              		.cfi_offset 7, -8
 994              		.cfi_offset 14, -4
 995 0002 82B0     		sub	sp, sp, #8
 996              		.cfi_def_cfa_offset 16
 997 0004 00AF     		add	r7, sp, #0
 998              		.cfi_def_cfa_register 7
 999 0006 7860     		str	r0, [r7, #4]
 827:.\Generated_Source\PSoC4/CapSense_CSD_CSHL.c **** 	return (CapSense_CSD_noiseThreshold[widget]);
 1000              		.loc 1 827 0
 1001 0008 0323     		mov	r3, #3
 828:.\Generated_Source\PSoC4/CapSense_CSD_CSHL.c **** }
 1002              		.loc 1 828 0
 1003 000a 181C     		mov	r0, r3
 1004 000c BD46     		mov	sp, r7
 1005 000e 02B0     		add	sp, sp, #8
 1006              		@ sp needed
 1007 0010 80BD     		pop	{r7, pc}
 1008              		.cfi_endproc
 1009              	.LFE46:
 1010              		.size	CapSense_CSD_GetNoiseThreshold, .-CapSense_CSD_GetNoiseThreshold
 1011 0012 C046     		.section	.text.CapSense_CSD_GetFingerHysteresis,"ax",%progbits
 1012              		.align	2
 1013              		.global	CapSense_CSD_GetFingerHysteresis
 1014              		.code	16
 1015              		.thumb_func
 1016              		.type	CapSense_CSD_GetFingerHysteresis, %function
 1017              	CapSense_CSD_GetFingerHysteresis:
 1018              	.LFB47:
 829:.\Generated_Source\PSoC4/CapSense_CSD_CSHL.c **** 
 830:.\Generated_Source\PSoC4/CapSense_CSD_CSHL.c **** 
 831:.\Generated_Source\PSoC4/CapSense_CSD_CSHL.c **** /*******************************************************************************
 832:.\Generated_Source\PSoC4/CapSense_CSD_CSHL.c **** * Function Name: CapSense_CSD_GetFingerHysteresis
 833:.\Generated_Source\PSoC4/CapSense_CSD_CSHL.c **** ********************************************************************************
 834:.\Generated_Source\PSoC4/CapSense_CSD_CSHL.c **** *
 835:.\Generated_Source\PSoC4/CapSense_CSD_CSHL.c **** * Summary:
 836:.\Generated_Source\PSoC4/CapSense_CSD_CSHL.c **** *  This function reads the Hysteresis value from the component.
 837:.\Generated_Source\PSoC4/CapSense_CSD_CSHL.c **** *
 838:.\Generated_Source\PSoC4/CapSense_CSD_CSHL.c **** * Parameters:
 839:.\Generated_Source\PSoC4/CapSense_CSD_CSHL.c **** *  widget:  widget number.
 840:.\Generated_Source\PSoC4/CapSense_CSD_CSHL.c **** *
 841:.\Generated_Source\PSoC4/CapSense_CSD_CSHL.c **** * Return:
 842:.\Generated_Source\PSoC4/CapSense_CSD_CSHL.c **** *  This API returns the Hysteresis of the widget indicated by the argument. 
 843:.\Generated_Source\PSoC4/CapSense_CSD_CSHL.c **** *
 844:.\Generated_Source\PSoC4/CapSense_CSD_CSHL.c **** * Global Variables:
 845:.\Generated_Source\PSoC4/CapSense_CSD_CSHL.c **** *  CapSense_CSD_hysteresis[] - This array contains the hysteresis value 
 846:.\Generated_Source\PSoC4/CapSense_CSD_CSHL.c **** *   for each widget.
 847:.\Generated_Source\PSoC4/CapSense_CSD_CSHL.c **** *  CapSense_CSD_widgetNumberSld - structure with dynamic sliders' parameters.
 848:.\Generated_Source\PSoC4/CapSense_CSD_CSHL.c **** *
 849:.\Generated_Source\PSoC4/CapSense_CSD_CSHL.c **** * Side Effects:
 850:.\Generated_Source\PSoC4/CapSense_CSD_CSHL.c **** *  None
 851:.\Generated_Source\PSoC4/CapSense_CSD_CSHL.c **** *
 852:.\Generated_Source\PSoC4/CapSense_CSD_CSHL.c **** *******************************************************************************/
 853:.\Generated_Source\PSoC4/CapSense_CSD_CSHL.c **** uint16 CapSense_CSD_GetFingerHysteresis(uint32 widget)
ARM GAS  C:\Users\Sausy\AppData\Local\Temp\ccLQi9zI.s 			page 34


 854:.\Generated_Source\PSoC4/CapSense_CSD_CSHL.c **** {
 1019              		.loc 1 854 0
 1020              		.cfi_startproc
 1021 0000 80B5     		push	{r7, lr}
 1022              		.cfi_def_cfa_offset 8
 1023              		.cfi_offset 7, -8
 1024              		.cfi_offset 14, -4
 1025 0002 82B0     		sub	sp, sp, #8
 1026              		.cfi_def_cfa_offset 16
 1027 0004 00AF     		add	r7, sp, #0
 1028              		.cfi_def_cfa_register 7
 1029 0006 7860     		str	r0, [r7, #4]
 855:.\Generated_Source\PSoC4/CapSense_CSD_CSHL.c **** 	return(CapSense_CSD_hysteresis[widget]);
 1030              		.loc 1 855 0
 1031 0008 0A23     		mov	r3, #10
 856:.\Generated_Source\PSoC4/CapSense_CSD_CSHL.c **** }
 1032              		.loc 1 856 0
 1033 000a 181C     		mov	r0, r3
 1034 000c BD46     		mov	sp, r7
 1035 000e 02B0     		add	sp, sp, #8
 1036              		@ sp needed
 1037 0010 80BD     		pop	{r7, pc}
 1038              		.cfi_endproc
 1039              	.LFE47:
 1040              		.size	CapSense_CSD_GetFingerHysteresis, .-CapSense_CSD_GetFingerHysteresis
 1041 0012 C046     		.section	.text.CapSense_CSD_GetNegativeNoiseThreshold,"ax",%progbits
 1042              		.align	2
 1043              		.global	CapSense_CSD_GetNegativeNoiseThreshold
 1044              		.code	16
 1045              		.thumb_func
 1046              		.type	CapSense_CSD_GetNegativeNoiseThreshold, %function
 1047              	CapSense_CSD_GetNegativeNoiseThreshold:
 1048              	.LFB48:
 857:.\Generated_Source\PSoC4/CapSense_CSD_CSHL.c **** 
 858:.\Generated_Source\PSoC4/CapSense_CSD_CSHL.c **** 
 859:.\Generated_Source\PSoC4/CapSense_CSD_CSHL.c **** /*******************************************************************************
 860:.\Generated_Source\PSoC4/CapSense_CSD_CSHL.c **** * Function Name: CapSense_CSD_GetNegativeNoiseThreshold
 861:.\Generated_Source\PSoC4/CapSense_CSD_CSHL.c **** ********************************************************************************
 862:.\Generated_Source\PSoC4/CapSense_CSD_CSHL.c **** *
 863:.\Generated_Source\PSoC4/CapSense_CSD_CSHL.c **** * Summary:
 864:.\Generated_Source\PSoC4/CapSense_CSD_CSHL.c **** *  This function reads the negative noise threshold from the component.
 865:.\Generated_Source\PSoC4/CapSense_CSD_CSHL.c **** *
 866:.\Generated_Source\PSoC4/CapSense_CSD_CSHL.c **** * Parameters: 
 867:.\Generated_Source\PSoC4/CapSense_CSD_CSHL.c **** *  None.
 868:.\Generated_Source\PSoC4/CapSense_CSD_CSHL.c **** *
 869:.\Generated_Source\PSoC4/CapSense_CSD_CSHL.c **** * Return Value: 
 870:.\Generated_Source\PSoC4/CapSense_CSD_CSHL.c **** *  This API returns the negative noise threshold
 871:.\Generated_Source\PSoC4/CapSense_CSD_CSHL.c **** *
 872:.\Generated_Source\PSoC4/CapSense_CSD_CSHL.c **** * Global Variables:
 873:.\Generated_Source\PSoC4/CapSense_CSD_CSHL.c **** *  CapSense_CSD_negativeNoiseThreshold - This variable specifies the negative 
 874:.\Generated_Source\PSoC4/CapSense_CSD_CSHL.c **** *   difference between the raw count and baseline levels for Baseline resetting
 875:.\Generated_Source\PSoC4/CapSense_CSD_CSHL.c **** *   to the raw count level.
 876:.\Generated_Source\PSoC4/CapSense_CSD_CSHL.c **** * 
 877:.\Generated_Source\PSoC4/CapSense_CSD_CSHL.c **** * Side Effects:
 878:.\Generated_Source\PSoC4/CapSense_CSD_CSHL.c **** *  None
 879:.\Generated_Source\PSoC4/CapSense_CSD_CSHL.c **** *
 880:.\Generated_Source\PSoC4/CapSense_CSD_CSHL.c **** *******************************************************************************/
ARM GAS  C:\Users\Sausy\AppData\Local\Temp\ccLQi9zI.s 			page 35


 881:.\Generated_Source\PSoC4/CapSense_CSD_CSHL.c **** uint16 CapSense_CSD_GetNegativeNoiseThreshold(uint32 widget)
 882:.\Generated_Source\PSoC4/CapSense_CSD_CSHL.c **** {
 1049              		.loc 1 882 0
 1050              		.cfi_startproc
 1051 0000 80B5     		push	{r7, lr}
 1052              		.cfi_def_cfa_offset 8
 1053              		.cfi_offset 7, -8
 1054              		.cfi_offset 14, -4
 1055 0002 82B0     		sub	sp, sp, #8
 1056              		.cfi_def_cfa_offset 16
 1057 0004 00AF     		add	r7, sp, #0
 1058              		.cfi_def_cfa_register 7
 1059 0006 7860     		str	r0, [r7, #4]
 883:.\Generated_Source\PSoC4/CapSense_CSD_CSHL.c **** #if (CapSense_CSD_TUNING_METHOD != CapSense_CSD__TUNING_NONE)
 884:.\Generated_Source\PSoC4/CapSense_CSD_CSHL.c **** 	return(CapSense_CSD_negativeNoiseThreshold[widget]);
 885:.\Generated_Source\PSoC4/CapSense_CSD_CSHL.c **** #else
 886:.\Generated_Source\PSoC4/CapSense_CSD_CSHL.c **** 	return(CapSense_CSD_NEGATIVE_NOISE_THRESHOLD);
 1060              		.loc 1 886 0
 1061 0008 1423     		mov	r3, #20
 887:.\Generated_Source\PSoC4/CapSense_CSD_CSHL.c **** #endif /* (CapSense_CSD_TUNING_METHOD != CapSense_CSD__TUNING_NONE) */ 
 888:.\Generated_Source\PSoC4/CapSense_CSD_CSHL.c **** }
 1062              		.loc 1 888 0
 1063 000a 181C     		mov	r0, r3
 1064 000c BD46     		mov	sp, r7
 1065 000e 02B0     		add	sp, sp, #8
 1066              		@ sp needed
 1067 0010 80BD     		pop	{r7, pc}
 1068              		.cfi_endproc
 1069              	.LFE48:
 1070              		.size	CapSense_CSD_GetNegativeNoiseThreshold, .-CapSense_CSD_GetNegativeNoiseThreshold
 1071 0012 C046     		.section	.text.CapSense_CSD_CheckIsSensorActive,"ax",%progbits
 1072              		.align	2
 1073              		.global	CapSense_CSD_CheckIsSensorActive
 1074              		.code	16
 1075              		.thumb_func
 1076              		.type	CapSense_CSD_CheckIsSensorActive, %function
 1077              	CapSense_CSD_CheckIsSensorActive:
 1078              	.LFB49:
 889:.\Generated_Source\PSoC4/CapSense_CSD_CSHL.c **** 
 890:.\Generated_Source\PSoC4/CapSense_CSD_CSHL.c **** 
 891:.\Generated_Source\PSoC4/CapSense_CSD_CSHL.c **** #if(CapSense_CSD_TUNING_METHOD != CapSense_CSD__TUNING_NONE)
 892:.\Generated_Source\PSoC4/CapSense_CSD_CSHL.c **** 	/*******************************************************************************
 893:.\Generated_Source\PSoC4/CapSense_CSD_CSHL.c **** 	* Function Name: CapSense_CSD_SetFingerThreshold
 894:.\Generated_Source\PSoC4/CapSense_CSD_CSHL.c **** 	********************************************************************************
 895:.\Generated_Source\PSoC4/CapSense_CSD_CSHL.c **** 	*
 896:.\Generated_Source\PSoC4/CapSense_CSD_CSHL.c **** 	* Summary:
 897:.\Generated_Source\PSoC4/CapSense_CSD_CSHL.c **** 	*  This API sets the finger threshold value for a widget. 
 898:.\Generated_Source\PSoC4/CapSense_CSD_CSHL.c **** 	*
 899:.\Generated_Source\PSoC4/CapSense_CSD_CSHL.c **** 	* Parameters: 
 900:.\Generated_Source\PSoC4/CapSense_CSD_CSHL.c **** 	*  sensorNumber:  widget index. 
 901:.\Generated_Source\PSoC4/CapSense_CSD_CSHL.c **** 	*  value:  Finger threshold value for the widget.
 902:.\Generated_Source\PSoC4/CapSense_CSD_CSHL.c **** 	*
 903:.\Generated_Source\PSoC4/CapSense_CSD_CSHL.c **** 	* Return Value: 
 904:.\Generated_Source\PSoC4/CapSense_CSD_CSHL.c **** 	*  None
 905:.\Generated_Source\PSoC4/CapSense_CSD_CSHL.c **** 	*
 906:.\Generated_Source\PSoC4/CapSense_CSD_CSHL.c **** 	* Global Variables:
 907:.\Generated_Source\PSoC4/CapSense_CSD_CSHL.c **** 	*  CapSense_CSD_fingerThreshold[] - This array contains the level of signal 
ARM GAS  C:\Users\Sausy\AppData\Local\Temp\ccLQi9zI.s 			page 36


 908:.\Generated_Source\PSoC4/CapSense_CSD_CSHL.c **** 	*   for each widget that determines if a finger is present on the widget.
 909:.\Generated_Source\PSoC4/CapSense_CSD_CSHL.c **** 	* 
 910:.\Generated_Source\PSoC4/CapSense_CSD_CSHL.c **** 	* Side Effects:
 911:.\Generated_Source\PSoC4/CapSense_CSD_CSHL.c **** 	*  None
 912:.\Generated_Source\PSoC4/CapSense_CSD_CSHL.c **** 	*
 913:.\Generated_Source\PSoC4/CapSense_CSD_CSHL.c **** 	*******************************************************************************/
 914:.\Generated_Source\PSoC4/CapSense_CSD_CSHL.c **** 	void CapSense_CSD_SetFingerThreshold(uint32 widget, uint16 value)
 915:.\Generated_Source\PSoC4/CapSense_CSD_CSHL.c **** 	{	
 916:.\Generated_Source\PSoC4/CapSense_CSD_CSHL.c **** 		CapSense_CSD_fingerThreshold[widget] = value;
 917:.\Generated_Source\PSoC4/CapSense_CSD_CSHL.c **** 	}
 918:.\Generated_Source\PSoC4/CapSense_CSD_CSHL.c **** 
 919:.\Generated_Source\PSoC4/CapSense_CSD_CSHL.c **** 
 920:.\Generated_Source\PSoC4/CapSense_CSD_CSHL.c **** 	/*******************************************************************************
 921:.\Generated_Source\PSoC4/CapSense_CSD_CSHL.c **** 	* Function Name: CapSense_CSD_SetNoiseThreshold
 922:.\Generated_Source\PSoC4/CapSense_CSD_CSHL.c **** 	********************************************************************************
 923:.\Generated_Source\PSoC4/CapSense_CSD_CSHL.c **** 	*
 924:.\Generated_Source\PSoC4/CapSense_CSD_CSHL.c **** 	* Summary:
 925:.\Generated_Source\PSoC4/CapSense_CSD_CSHL.c **** 	*  This API sets the Noise Threshold value for each widget.
 926:.\Generated_Source\PSoC4/CapSense_CSD_CSHL.c **** 	*
 927:.\Generated_Source\PSoC4/CapSense_CSD_CSHL.c **** 	* Parameters:
 928:.\Generated_Source\PSoC4/CapSense_CSD_CSHL.c **** 	*  widget:  Sensor index number.
 929:.\Generated_Source\PSoC4/CapSense_CSD_CSHL.c **** 	*  value:   Noise Threshold value for widget.
 930:.\Generated_Source\PSoC4/CapSense_CSD_CSHL.c **** 	*
 931:.\Generated_Source\PSoC4/CapSense_CSD_CSHL.c **** 	* Return Value: 
 932:.\Generated_Source\PSoC4/CapSense_CSD_CSHL.c **** 	*  None
 933:.\Generated_Source\PSoC4/CapSense_CSD_CSHL.c **** 	*
 934:.\Generated_Source\PSoC4/CapSense_CSD_CSHL.c **** 	* Global Variables:
 935:.\Generated_Source\PSoC4/CapSense_CSD_CSHL.c **** 	*  CapSense_CSD_noiseThreshold[] - This array contains the level of signal 
 936:.\Generated_Source\PSoC4/CapSense_CSD_CSHL.c **** 	*   for each widget that determines the level of noise in the capacitive scan.
 937:.\Generated_Source\PSoC4/CapSense_CSD_CSHL.c **** 	* 
 938:.\Generated_Source\PSoC4/CapSense_CSD_CSHL.c **** 	* Side Effects:
 939:.\Generated_Source\PSoC4/CapSense_CSD_CSHL.c **** 	*  None
 940:.\Generated_Source\PSoC4/CapSense_CSD_CSHL.c **** 	*
 941:.\Generated_Source\PSoC4/CapSense_CSD_CSHL.c **** 	*******************************************************************************/
 942:.\Generated_Source\PSoC4/CapSense_CSD_CSHL.c **** 	void CapSense_CSD_SetNoiseThreshold(uint32 widget, uint16 value)
 943:.\Generated_Source\PSoC4/CapSense_CSD_CSHL.c **** 	{
 944:.\Generated_Source\PSoC4/CapSense_CSD_CSHL.c **** 		CapSense_CSD_noiseThreshold[widget] = value;
 945:.\Generated_Source\PSoC4/CapSense_CSD_CSHL.c **** 	}
 946:.\Generated_Source\PSoC4/CapSense_CSD_CSHL.c **** 
 947:.\Generated_Source\PSoC4/CapSense_CSD_CSHL.c **** 
 948:.\Generated_Source\PSoC4/CapSense_CSD_CSHL.c **** 	/*******************************************************************************
 949:.\Generated_Source\PSoC4/CapSense_CSD_CSHL.c **** 	* Function Name: CapSense_CSD_SetFingerHysteresis
 950:.\Generated_Source\PSoC4/CapSense_CSD_CSHL.c **** 	********************************************************************************
 951:.\Generated_Source\PSoC4/CapSense_CSD_CSHL.c **** 	*
 952:.\Generated_Source\PSoC4/CapSense_CSD_CSHL.c **** 	* Summary:
 953:.\Generated_Source\PSoC4/CapSense_CSD_CSHL.c **** 	*  This API sets the Hysteresis value of a widget
 954:.\Generated_Source\PSoC4/CapSense_CSD_CSHL.c **** 	*
 955:.\Generated_Source\PSoC4/CapSense_CSD_CSHL.c **** 	* Parameters: 
 956:.\Generated_Source\PSoC4/CapSense_CSD_CSHL.c **** 	*  value:  Hysteresis value for widgets.
 957:.\Generated_Source\PSoC4/CapSense_CSD_CSHL.c **** 	*  widget:  widget number
 958:.\Generated_Source\PSoC4/CapSense_CSD_CSHL.c **** 	*
 959:.\Generated_Source\PSoC4/CapSense_CSD_CSHL.c **** 	* Return Value: 
 960:.\Generated_Source\PSoC4/CapSense_CSD_CSHL.c **** 	*  None
 961:.\Generated_Source\PSoC4/CapSense_CSD_CSHL.c **** 	*
 962:.\Generated_Source\PSoC4/CapSense_CSD_CSHL.c **** 	* Global Variables:
 963:.\Generated_Source\PSoC4/CapSense_CSD_CSHL.c **** 	*  CapSense_CSD_hysteresis[] - This array contains the hysteresis value for each widget.
 964:.\Generated_Source\PSoC4/CapSense_CSD_CSHL.c **** 	*  CapSense_CSD_widgetNumberSld - structure with dynamic sliders' parameters.
ARM GAS  C:\Users\Sausy\AppData\Local\Temp\ccLQi9zI.s 			page 37


 965:.\Generated_Source\PSoC4/CapSense_CSD_CSHL.c **** 	*
 966:.\Generated_Source\PSoC4/CapSense_CSD_CSHL.c **** 	* Side Effects:
 967:.\Generated_Source\PSoC4/CapSense_CSD_CSHL.c **** 	*  None
 968:.\Generated_Source\PSoC4/CapSense_CSD_CSHL.c **** 	*
 969:.\Generated_Source\PSoC4/CapSense_CSD_CSHL.c **** 	*******************************************************************************/
 970:.\Generated_Source\PSoC4/CapSense_CSD_CSHL.c **** 	void CapSense_CSD_SetFingerHysteresis(uint32 widget, uint16 value)
 971:.\Generated_Source\PSoC4/CapSense_CSD_CSHL.c **** 	{
 972:.\Generated_Source\PSoC4/CapSense_CSD_CSHL.c **** 		CapSense_CSD_hysteresis[widget] = value;
 973:.\Generated_Source\PSoC4/CapSense_CSD_CSHL.c **** 	}
 974:.\Generated_Source\PSoC4/CapSense_CSD_CSHL.c **** 
 975:.\Generated_Source\PSoC4/CapSense_CSD_CSHL.c **** 
 976:.\Generated_Source\PSoC4/CapSense_CSD_CSHL.c **** 	/*******************************************************************************
 977:.\Generated_Source\PSoC4/CapSense_CSD_CSHL.c **** 	* Function Name: CapSense_CSD_SetNegativeNoiseThreshold
 978:.\Generated_Source\PSoC4/CapSense_CSD_CSHL.c **** 	********************************************************************************
 979:.\Generated_Source\PSoC4/CapSense_CSD_CSHL.c **** 	*
 980:.\Generated_Source\PSoC4/CapSense_CSD_CSHL.c **** 	* Summary:
 981:.\Generated_Source\PSoC4/CapSense_CSD_CSHL.c **** 	*  This API sets the Negative Noise Threshold value of a widget
 982:.\Generated_Source\PSoC4/CapSense_CSD_CSHL.c **** 	*
 983:.\Generated_Source\PSoC4/CapSense_CSD_CSHL.c **** 	* Parameters: 
 984:.\Generated_Source\PSoC4/CapSense_CSD_CSHL.c **** 	*  value:  Negative Noise Threshold value for widgets.
 985:.\Generated_Source\PSoC4/CapSense_CSD_CSHL.c **** 	*  widget: widget number
 986:.\Generated_Source\PSoC4/CapSense_CSD_CSHL.c **** 	*
 987:.\Generated_Source\PSoC4/CapSense_CSD_CSHL.c **** 	* Return Value: 
 988:.\Generated_Source\PSoC4/CapSense_CSD_CSHL.c **** 	*  None
 989:.\Generated_Source\PSoC4/CapSense_CSD_CSHL.c **** 	*
 990:.\Generated_Source\PSoC4/CapSense_CSD_CSHL.c **** 	* Global Variables:
 991:.\Generated_Source\PSoC4/CapSense_CSD_CSHL.c **** 	*  CapSense_CSD_negativeNoiseThreshold  - This parameter specifies the negative 
 992:.\Generated_Source\PSoC4/CapSense_CSD_CSHL.c **** 	*   difference between the raw count and baseline levels for Baseline resetting to 
 993:.\Generated_Source\PSoC4/CapSense_CSD_CSHL.c **** 	*   the raw count level.
 994:.\Generated_Source\PSoC4/CapSense_CSD_CSHL.c **** 	* 
 995:.\Generated_Source\PSoC4/CapSense_CSD_CSHL.c **** 	* Side Effects:
 996:.\Generated_Source\PSoC4/CapSense_CSD_CSHL.c **** 	*  None
 997:.\Generated_Source\PSoC4/CapSense_CSD_CSHL.c **** 	*
 998:.\Generated_Source\PSoC4/CapSense_CSD_CSHL.c **** 	*******************************************************************************/
 999:.\Generated_Source\PSoC4/CapSense_CSD_CSHL.c **** 	void CapSense_CSD_SetNegativeNoiseThreshold(uint32 widget, uint16 value)
1000:.\Generated_Source\PSoC4/CapSense_CSD_CSHL.c **** 	{
1001:.\Generated_Source\PSoC4/CapSense_CSD_CSHL.c **** 		CapSense_CSD_negativeNoiseThreshold[widget] = value;
1002:.\Generated_Source\PSoC4/CapSense_CSD_CSHL.c **** 	}
1003:.\Generated_Source\PSoC4/CapSense_CSD_CSHL.c **** 
1004:.\Generated_Source\PSoC4/CapSense_CSD_CSHL.c **** 
1005:.\Generated_Source\PSoC4/CapSense_CSD_CSHL.c **** 	/*******************************************************************************
1006:.\Generated_Source\PSoC4/CapSense_CSD_CSHL.c **** 	* Function Name: CapSense_CSD_SetDebounce
1007:.\Generated_Source\PSoC4/CapSense_CSD_CSHL.c **** 	********************************************************************************
1008:.\Generated_Source\PSoC4/CapSense_CSD_CSHL.c **** 	*
1009:.\Generated_Source\PSoC4/CapSense_CSD_CSHL.c **** 	* Summary:
1010:.\Generated_Source\PSoC4/CapSense_CSD_CSHL.c **** 	*  This API sets the debounce value for a widget.
1011:.\Generated_Source\PSoC4/CapSense_CSD_CSHL.c **** 	*
1012:.\Generated_Source\PSoC4/CapSense_CSD_CSHL.c **** 	* Parameters: 
1013:.\Generated_Source\PSoC4/CapSense_CSD_CSHL.c **** 	*  value:  Debounce value for widget.
1014:.\Generated_Source\PSoC4/CapSense_CSD_CSHL.c **** 	*  widget: widget index.
1015:.\Generated_Source\PSoC4/CapSense_CSD_CSHL.c **** 	*
1016:.\Generated_Source\PSoC4/CapSense_CSD_CSHL.c **** 	* Return Value: 
1017:.\Generated_Source\PSoC4/CapSense_CSD_CSHL.c **** 	*  None
1018:.\Generated_Source\PSoC4/CapSense_CSD_CSHL.c **** 	*
1019:.\Generated_Source\PSoC4/CapSense_CSD_CSHL.c **** 	* Global Variables:
1020:.\Generated_Source\PSoC4/CapSense_CSD_CSHL.c **** 	*  CapSense_CSD_debounce[] - This array contains the debounce value for each widget.
1021:.\Generated_Source\PSoC4/CapSense_CSD_CSHL.c **** 	*  CapSense_CSD_widgetNumberSld - structure with dynamic sliders' parameters.
ARM GAS  C:\Users\Sausy\AppData\Local\Temp\ccLQi9zI.s 			page 38


1022:.\Generated_Source\PSoC4/CapSense_CSD_CSHL.c **** 	*
1023:.\Generated_Source\PSoC4/CapSense_CSD_CSHL.c **** 	* Side Effects:
1024:.\Generated_Source\PSoC4/CapSense_CSD_CSHL.c **** 	*  None
1025:.\Generated_Source\PSoC4/CapSense_CSD_CSHL.c **** 	*
1026:.\Generated_Source\PSoC4/CapSense_CSD_CSHL.c **** 	*******************************************************************************/
1027:.\Generated_Source\PSoC4/CapSense_CSD_CSHL.c **** 	void CapSense_CSD_SetDebounce(uint32 widget, uint8 value)
1028:.\Generated_Source\PSoC4/CapSense_CSD_CSHL.c **** 	{
1029:.\Generated_Source\PSoC4/CapSense_CSD_CSHL.c **** 		CapSense_CSD_debounce[widget] = value;
1030:.\Generated_Source\PSoC4/CapSense_CSD_CSHL.c **** 	}
1031:.\Generated_Source\PSoC4/CapSense_CSD_CSHL.c **** 
1032:.\Generated_Source\PSoC4/CapSense_CSD_CSHL.c **** 
1033:.\Generated_Source\PSoC4/CapSense_CSD_CSHL.c **** 	/*******************************************************************************
1034:.\Generated_Source\PSoC4/CapSense_CSD_CSHL.c **** 	* Function Name: CapSense_CSD_SetLowBaselineReset
1035:.\Generated_Source\PSoC4/CapSense_CSD_CSHL.c **** 	********************************************************************************
1036:.\Generated_Source\PSoC4/CapSense_CSD_CSHL.c **** 	*
1037:.\Generated_Source\PSoC4/CapSense_CSD_CSHL.c **** 	* Summary:
1038:.\Generated_Source\PSoC4/CapSense_CSD_CSHL.c **** 	*  This API sets the low baseline reset threshold value for the sensor.
1039:.\Generated_Source\PSoC4/CapSense_CSD_CSHL.c **** 	*
1040:.\Generated_Source\PSoC4/CapSense_CSD_CSHL.c **** 	* Parameters: 
1041:.\Generated_Source\PSoC4/CapSense_CSD_CSHL.c **** 	*  value: low baseline reset threshold value.
1042:.\Generated_Source\PSoC4/CapSense_CSD_CSHL.c **** 	*  sensor: Sensor index.
1043:.\Generated_Source\PSoC4/CapSense_CSD_CSHL.c **** 	*
1044:.\Generated_Source\PSoC4/CapSense_CSD_CSHL.c **** 	* Return Value: 
1045:.\Generated_Source\PSoC4/CapSense_CSD_CSHL.c **** 	*  None
1046:.\Generated_Source\PSoC4/CapSense_CSD_CSHL.c **** 	*
1047:.\Generated_Source\PSoC4/CapSense_CSD_CSHL.c **** 	* Global Variables:
1048:.\Generated_Source\PSoC4/CapSense_CSD_CSHL.c **** 	*  CapSense_CSD_lowBaselineReset[] - This array contains the Baseline update 
1049:.\Generated_Source\PSoC4/CapSense_CSD_CSHL.c **** 	*  threshold value for each sensor.
1050:.\Generated_Source\PSoC4/CapSense_CSD_CSHL.c **** 	* 
1051:.\Generated_Source\PSoC4/CapSense_CSD_CSHL.c **** 	* Side Effects:
1052:.\Generated_Source\PSoC4/CapSense_CSD_CSHL.c **** 	*  None
1053:.\Generated_Source\PSoC4/CapSense_CSD_CSHL.c **** 	*
1054:.\Generated_Source\PSoC4/CapSense_CSD_CSHL.c **** 	*******************************************************************************/
1055:.\Generated_Source\PSoC4/CapSense_CSD_CSHL.c **** 	void CapSense_CSD_SetLowBaselineReset(uint32 sensor, uint8 value)
1056:.\Generated_Source\PSoC4/CapSense_CSD_CSHL.c **** 	{
1057:.\Generated_Source\PSoC4/CapSense_CSD_CSHL.c **** 		CapSense_CSD_lowBaselineReset[sensor] = value;
1058:.\Generated_Source\PSoC4/CapSense_CSD_CSHL.c **** 	}
1059:.\Generated_Source\PSoC4/CapSense_CSD_CSHL.c **** #endif /* (CapSense_CSD_TUNING_METHOD != CapSense_CSD__TUNING_NONE) */
1060:.\Generated_Source\PSoC4/CapSense_CSD_CSHL.c **** 
1061:.\Generated_Source\PSoC4/CapSense_CSD_CSHL.c **** 
1062:.\Generated_Source\PSoC4/CapSense_CSD_CSHL.c **** /*******************************************************************************
1063:.\Generated_Source\PSoC4/CapSense_CSD_CSHL.c **** * Function Name: CapSense_CSD_CheckIsSensorActive
1064:.\Generated_Source\PSoC4/CapSense_CSD_CSHL.c **** ********************************************************************************
1065:.\Generated_Source\PSoC4/CapSense_CSD_CSHL.c **** *
1066:.\Generated_Source\PSoC4/CapSense_CSD_CSHL.c **** * Summary:
1067:.\Generated_Source\PSoC4/CapSense_CSD_CSHL.c **** *  Compares the CapSense_CSD_sensorSignal[sensor] array element to the finger
1068:.\Generated_Source\PSoC4/CapSense_CSD_CSHL.c **** *  threshold of the widget it belongs to. The hysteresis and debounce are taken into 
1069:.\Generated_Source\PSoC4/CapSense_CSD_CSHL.c **** *  account. The hysteresis is added or subtracted from the finger threshold 
1070:.\Generated_Source\PSoC4/CapSense_CSD_CSHL.c **** *  based on whether the sensor is currently active. 
1071:.\Generated_Source\PSoC4/CapSense_CSD_CSHL.c **** *  If the sensor is active, the threshold is lowered by the hysteresis amount.
1072:.\Generated_Source\PSoC4/CapSense_CSD_CSHL.c **** *  If the sensor is inactive, the threshold is raised by the hysteresis amount.
1073:.\Generated_Source\PSoC4/CapSense_CSD_CSHL.c **** *  The debounce counter is added to the sensor active transition.
1074:.\Generated_Source\PSoC4/CapSense_CSD_CSHL.c **** *  This function updates the CapSense_CSD_sensorOnMask[] array element.
1075:.\Generated_Source\PSoC4/CapSense_CSD_CSHL.c **** *
1076:.\Generated_Source\PSoC4/CapSense_CSD_CSHL.c **** * Parameters:
1077:.\Generated_Source\PSoC4/CapSense_CSD_CSHL.c **** *  sensor:  Sensor number.
1078:.\Generated_Source\PSoC4/CapSense_CSD_CSHL.c **** *
ARM GAS  C:\Users\Sausy\AppData\Local\Temp\ccLQi9zI.s 			page 39


1079:.\Generated_Source\PSoC4/CapSense_CSD_CSHL.c **** * Return:
1080:.\Generated_Source\PSoC4/CapSense_CSD_CSHL.c **** *  Returns sensor state 1 if active, 0 if not active.
1081:.\Generated_Source\PSoC4/CapSense_CSD_CSHL.c **** *
1082:.\Generated_Source\PSoC4/CapSense_CSD_CSHL.c **** * Global Variables:
1083:.\Generated_Source\PSoC4/CapSense_CSD_CSHL.c **** *  CapSense_CSD_sensorSignal[] - used to store the difference between 
1084:.\Generated_Source\PSoC4/CapSense_CSD_CSHL.c **** *  the current value of raw data and a previous value of the baseline.
1085:.\Generated_Source\PSoC4/CapSense_CSD_CSHL.c **** *  CapSense_CSD_debounceCounter[]   - used to store the current debounce 
1086:.\Generated_Source\PSoC4/CapSense_CSD_CSHL.c **** *  counter of the sensor. the widget which have this parameter are buttons, matrix 
1087:.\Generated_Source\PSoC4/CapSense_CSD_CSHL.c **** *  buttons, proximity, and guard. All other widgets don't have the  debounce parameter
1088:.\Generated_Source\PSoC4/CapSense_CSD_CSHL.c **** *  and use the last element of this array with value 0 (it means no debounce).
1089:.\Generated_Source\PSoC4/CapSense_CSD_CSHL.c **** *  CapSense_CSD_sensorOnMask[] - used to store the sensors on/off state.
1090:.\Generated_Source\PSoC4/CapSense_CSD_CSHL.c **** *  CapSense_CSD_sensorOnMask[0] contains the masked bits for sensors 
1091:.\Generated_Source\PSoC4/CapSense_CSD_CSHL.c **** *   0 through 7 (sensor 0 is bit 0, sensor 1 is bit 1).
1092:.\Generated_Source\PSoC4/CapSense_CSD_CSHL.c **** *  CapSense_CSD_sensorEnableMask[1] contains the masked bits for 
1093:.\Generated_Source\PSoC4/CapSense_CSD_CSHL.c **** *  sensors 8 through 15 (if needed), and so on.
1094:.\Generated_Source\PSoC4/CapSense_CSD_CSHL.c **** *  0 - sensor is inactive.
1095:.\Generated_Source\PSoC4/CapSense_CSD_CSHL.c **** *  1 - sensor is active.
1096:.\Generated_Source\PSoC4/CapSense_CSD_CSHL.c **** * 
1097:.\Generated_Source\PSoC4/CapSense_CSD_CSHL.c **** * Side Effects:
1098:.\Generated_Source\PSoC4/CapSense_CSD_CSHL.c **** *  None
1099:.\Generated_Source\PSoC4/CapSense_CSD_CSHL.c **** *
1100:.\Generated_Source\PSoC4/CapSense_CSD_CSHL.c **** *******************************************************************************/
1101:.\Generated_Source\PSoC4/CapSense_CSD_CSHL.c **** uint32 CapSense_CSD_CheckIsSensorActive(uint32 sensor)
1102:.\Generated_Source\PSoC4/CapSense_CSD_CSHL.c **** {	
 1079              		.loc 1 1102 0
 1080              		.cfi_startproc
 1081 0000 80B5     		push	{r7, lr}
 1082              		.cfi_def_cfa_offset 8
 1083              		.cfi_offset 7, -8
 1084              		.cfi_offset 14, -4
 1085 0002 84B0     		sub	sp, sp, #16
 1086              		.cfi_def_cfa_offset 24
 1087 0004 00AF     		add	r7, sp, #0
 1088              		.cfi_def_cfa_register 7
 1089 0006 7860     		str	r0, [r7, #4]
1103:.\Generated_Source\PSoC4/CapSense_CSD_CSHL.c **** 	uint8 widget;
1104:.\Generated_Source\PSoC4/CapSense_CSD_CSHL.c **** 	uint8 debounce;
1105:.\Generated_Source\PSoC4/CapSense_CSD_CSHL.c **** 	uint8 debounceIndex;
1106:.\Generated_Source\PSoC4/CapSense_CSD_CSHL.c **** 
1107:.\Generated_Source\PSoC4/CapSense_CSD_CSHL.c **** 	uint16 fingerThreshold;
1108:.\Generated_Source\PSoC4/CapSense_CSD_CSHL.c **** 	uint16 hysteresis;
1109:.\Generated_Source\PSoC4/CapSense_CSD_CSHL.c **** 	
1110:.\Generated_Source\PSoC4/CapSense_CSD_CSHL.c **** 	
1111:.\Generated_Source\PSoC4/CapSense_CSD_CSHL.c ****     /* Prepare to find debounce counter index */
1112:.\Generated_Source\PSoC4/CapSense_CSD_CSHL.c ****     widget = CapSense_CSD_widgetNumber[sensor];
 1090              		.loc 1 1112 0
 1091 0008 3B1C     		mov	r3, r7
 1092 000a 0F33     		add	r3, r3, #15
 1093 000c 3D49     		ldr	r1, .L73
 1094 000e 7A68     		ldr	r2, [r7, #4]
 1095 0010 8A18     		add	r2, r1, r2
 1096 0012 1278     		ldrb	r2, [r2]
 1097 0014 1A70     		strb	r2, [r3]
1113:.\Generated_Source\PSoC4/CapSense_CSD_CSHL.c **** 	
1114:.\Generated_Source\PSoC4/CapSense_CSD_CSHL.c ****     fingerThreshold = CapSense_CSD_fingerThreshold[widget];
 1098              		.loc 1 1114 0
 1099 0016 3B1C     		mov	r3, r7
ARM GAS  C:\Users\Sausy\AppData\Local\Temp\ccLQi9zI.s 			page 40


 1100 0018 0C33     		add	r3, r3, #12
 1101 001a 3222     		mov	r2, #50
 1102 001c 1A80     		strh	r2, [r3]
1115:.\Generated_Source\PSoC4/CapSense_CSD_CSHL.c **** 	hysteresis = CapSense_CSD_hysteresis[widget];
 1103              		.loc 1 1115 0
 1104 001e 3B1C     		mov	r3, r7
 1105 0020 0A33     		add	r3, r3, #10
 1106 0022 0A22     		mov	r2, #10
 1107 0024 1A80     		strh	r2, [r3]
1116:.\Generated_Source\PSoC4/CapSense_CSD_CSHL.c **** 	debounce = CapSense_CSD_debounce[widget];	
 1108              		.loc 1 1116 0
 1109 0026 3B1C     		mov	r3, r7
 1110 0028 0933     		add	r3, r3, #9
 1111 002a 0222     		mov	r2, #2
 1112 002c 1A70     		strb	r2, [r3]
1117:.\Generated_Source\PSoC4/CapSense_CSD_CSHL.c **** 	
1118:.\Generated_Source\PSoC4/CapSense_CSD_CSHL.c **** 	    debounceIndex = widget;
 1113              		.loc 1 1118 0
 1114 002e 3B1C     		mov	r3, r7
 1115 0030 0833     		add	r3, r3, #8
 1116 0032 3A1C     		mov	r2, r7
 1117 0034 0F32     		add	r2, r2, #15
 1118 0036 1278     		ldrb	r2, [r2]
 1119 0038 1A70     		strb	r2, [r3]
1119:.\Generated_Source\PSoC4/CapSense_CSD_CSHL.c **** 
1120:.\Generated_Source\PSoC4/CapSense_CSD_CSHL.c **** 	
1121:.\Generated_Source\PSoC4/CapSense_CSD_CSHL.c ****     /* Was on */
1122:.\Generated_Source\PSoC4/CapSense_CSD_CSHL.c ****     if (0u != CapSense_CSD_GetBitValue(CapSense_CSD_sensorOnMask, sensor))
 1120              		.loc 1 1122 0
 1121 003a 334A     		ldr	r2, .L73+4
 1122 003c 7B68     		ldr	r3, [r7, #4]
 1123 003e 101C     		mov	r0, r2
 1124 0040 191C     		mov	r1, r3
 1125 0042 FFF7FEFF 		bl	CapSense_CSD_GetBitValue
 1126 0046 031C     		mov	r3, r0
 1127 0048 002B     		cmp	r3, #0
 1128 004a 1DD0     		beq	.L65
1123:.\Generated_Source\PSoC4/CapSense_CSD_CSHL.c ****     {
1124:.\Generated_Source\PSoC4/CapSense_CSD_CSHL.c ****         /* Hysteresis minus */
1125:.\Generated_Source\PSoC4/CapSense_CSD_CSHL.c ****         if (CapSense_CSD_sensorSignal[sensor] < (fingerThreshold - hysteresis))
 1129              		.loc 1 1125 0
 1130 004c 2F4B     		ldr	r3, .L73+8
 1131 004e 7A68     		ldr	r2, [r7, #4]
 1132 0050 5200     		lsl	r2, r2, #1
 1133 0052 D35A     		ldrh	r3, [r2, r3]
 1134 0054 1A1C     		mov	r2, r3
 1135 0056 3B1C     		mov	r3, r7
 1136 0058 0C33     		add	r3, r3, #12
 1137 005a 1988     		ldrh	r1, [r3]
 1138 005c 3B1C     		mov	r3, r7
 1139 005e 0A33     		add	r3, r3, #10
 1140 0060 1B88     		ldrh	r3, [r3]
 1141 0062 CB1A     		sub	r3, r1, r3
 1142 0064 9A42     		cmp	r2, r3
 1143 0066 3DDA     		bge	.L67
1126:.\Generated_Source\PSoC4/CapSense_CSD_CSHL.c ****         {
1127:.\Generated_Source\PSoC4/CapSense_CSD_CSHL.c **** 	   		CapSense_CSD_SetBitValue(CapSense_CSD_sensorOnMask, sensor, 0u);
ARM GAS  C:\Users\Sausy\AppData\Local\Temp\ccLQi9zI.s 			page 41


 1144              		.loc 1 1127 0
 1145 0068 274A     		ldr	r2, .L73+4
 1146 006a 7B68     		ldr	r3, [r7, #4]
 1147 006c 101C     		mov	r0, r2
 1148 006e 191C     		mov	r1, r3
 1149 0070 0022     		mov	r2, #0
 1150 0072 FFF7FEFF 		bl	CapSense_CSD_SetBitValue
1128:.\Generated_Source\PSoC4/CapSense_CSD_CSHL.c **** 			/* Sensor inactive - reset Debounce counter */
1129:.\Generated_Source\PSoC4/CapSense_CSD_CSHL.c ****             CapSense_CSD_debounceCounter[debounceIndex] = debounce;
 1151              		.loc 1 1129 0
 1152 0076 3B1C     		mov	r3, r7
 1153 0078 0833     		add	r3, r3, #8
 1154 007a 1B78     		ldrb	r3, [r3]
 1155 007c 244A     		ldr	r2, .L73+12
 1156 007e 391C     		mov	r1, r7
 1157 0080 0931     		add	r1, r1, #9
 1158 0082 0978     		ldrb	r1, [r1]
 1159 0084 D154     		strb	r1, [r2, r3]
 1160 0086 2DE0     		b	.L67
 1161              	.L65:
1130:.\Generated_Source\PSoC4/CapSense_CSD_CSHL.c ****         }
1131:.\Generated_Source\PSoC4/CapSense_CSD_CSHL.c ****     }
1132:.\Generated_Source\PSoC4/CapSense_CSD_CSHL.c ****     else    /* Was off */
1133:.\Generated_Source\PSoC4/CapSense_CSD_CSHL.c ****     {
1134:.\Generated_Source\PSoC4/CapSense_CSD_CSHL.c ****         /* Hysteresis plus */
1135:.\Generated_Source\PSoC4/CapSense_CSD_CSHL.c ****         if (CapSense_CSD_sensorSignal[sensor] >= (fingerThreshold + hysteresis))
 1162              		.loc 1 1135 0
 1163 0088 204B     		ldr	r3, .L73+8
 1164 008a 7A68     		ldr	r2, [r7, #4]
 1165 008c 5200     		lsl	r2, r2, #1
 1166 008e D35A     		ldrh	r3, [r2, r3]
 1167 0090 1A1C     		mov	r2, r3
 1168 0092 3B1C     		mov	r3, r7
 1169 0094 0C33     		add	r3, r3, #12
 1170 0096 1988     		ldrh	r1, [r3]
 1171 0098 3B1C     		mov	r3, r7
 1172 009a 0A33     		add	r3, r3, #10
 1173 009c 1B88     		ldrh	r3, [r3]
 1174 009e CB18     		add	r3, r1, r3
 1175 00a0 9A42     		cmp	r2, r3
 1176 00a2 17DB     		blt	.L68
1136:.\Generated_Source\PSoC4/CapSense_CSD_CSHL.c ****         {
1137:.\Generated_Source\PSoC4/CapSense_CSD_CSHL.c **** 			CapSense_CSD_debounceCounter[debounceIndex]--;
 1177              		.loc 1 1137 0
 1178 00a4 3B1C     		mov	r3, r7
 1179 00a6 0833     		add	r3, r3, #8
 1180 00a8 1B78     		ldrb	r3, [r3]
 1181 00aa 194A     		ldr	r2, .L73+12
 1182 00ac D25C     		ldrb	r2, [r2, r3]
 1183 00ae 013A     		sub	r2, r2, #1
 1184 00b0 D1B2     		uxtb	r1, r2
 1185 00b2 174A     		ldr	r2, .L73+12
 1186 00b4 D154     		strb	r1, [r2, r3]
1138:.\Generated_Source\PSoC4/CapSense_CSD_CSHL.c ****             /* Sensor active, decrement debounce counter */
1139:.\Generated_Source\PSoC4/CapSense_CSD_CSHL.c ****             if(CapSense_CSD_debounceCounter[debounceIndex] == 0u)
 1187              		.loc 1 1139 0
 1188 00b6 3B1C     		mov	r3, r7
ARM GAS  C:\Users\Sausy\AppData\Local\Temp\ccLQi9zI.s 			page 42


 1189 00b8 0833     		add	r3, r3, #8
 1190 00ba 1B78     		ldrb	r3, [r3]
 1191 00bc 144A     		ldr	r2, .L73+12
 1192 00be D35C     		ldrb	r3, [r2, r3]
 1193 00c0 002B     		cmp	r3, #0
 1194 00c2 0FD1     		bne	.L67
1140:.\Generated_Source\PSoC4/CapSense_CSD_CSHL.c ****             {
1141:.\Generated_Source\PSoC4/CapSense_CSD_CSHL.c ****                 CapSense_CSD_SetBitValue(CapSense_CSD_sensorOnMask, sensor, 1u); 
 1195              		.loc 1 1141 0
 1196 00c4 104A     		ldr	r2, .L73+4
 1197 00c6 7B68     		ldr	r3, [r7, #4]
 1198 00c8 101C     		mov	r0, r2
 1199 00ca 191C     		mov	r1, r3
 1200 00cc 0122     		mov	r2, #1
 1201 00ce FFF7FEFF 		bl	CapSense_CSD_SetBitValue
 1202 00d2 07E0     		b	.L67
 1203              	.L68:
1142:.\Generated_Source\PSoC4/CapSense_CSD_CSHL.c ****             }
1143:.\Generated_Source\PSoC4/CapSense_CSD_CSHL.c ****         }
1144:.\Generated_Source\PSoC4/CapSense_CSD_CSHL.c ****         else
1145:.\Generated_Source\PSoC4/CapSense_CSD_CSHL.c ****         {
1146:.\Generated_Source\PSoC4/CapSense_CSD_CSHL.c ****             /* Sensor inactive - reset Debounce counter */
1147:.\Generated_Source\PSoC4/CapSense_CSD_CSHL.c ****             CapSense_CSD_debounceCounter[debounceIndex] = debounce;
 1204              		.loc 1 1147 0
 1205 00d4 3B1C     		mov	r3, r7
 1206 00d6 0833     		add	r3, r3, #8
 1207 00d8 1B78     		ldrb	r3, [r3]
 1208 00da 0D4A     		ldr	r2, .L73+12
 1209 00dc 391C     		mov	r1, r7
 1210 00de 0931     		add	r1, r1, #9
 1211 00e0 0978     		ldrb	r1, [r1]
 1212 00e2 D154     		strb	r1, [r2, r3]
 1213              	.L67:
1148:.\Generated_Source\PSoC4/CapSense_CSD_CSHL.c ****         }
1149:.\Generated_Source\PSoC4/CapSense_CSD_CSHL.c ****     }
1150:.\Generated_Source\PSoC4/CapSense_CSD_CSHL.c ****     
1151:.\Generated_Source\PSoC4/CapSense_CSD_CSHL.c ****     return ((uint32)((0u != CapSense_CSD_GetBitValue(CapSense_CSD_sensorOnMask, sensor)) ? 1u : 0u)
 1214              		.loc 1 1151 0
 1215 00e4 084A     		ldr	r2, .L73+4
 1216 00e6 7B68     		ldr	r3, [r7, #4]
 1217 00e8 101C     		mov	r0, r2
 1218 00ea 191C     		mov	r1, r3
 1219 00ec FFF7FEFF 		bl	CapSense_CSD_GetBitValue
 1220 00f0 031C     		mov	r3, r0
 1221 00f2 002B     		cmp	r3, #0
 1222 00f4 01D0     		beq	.L70
 1223              		.loc 1 1151 0 is_stmt 0 discriminator 1
 1224 00f6 0123     		mov	r3, #1
 1225 00f8 00E0     		b	.L71
 1226              	.L70:
 1227              		.loc 1 1151 0 discriminator 2
 1228 00fa 0023     		mov	r3, #0
 1229              	.L71:
1152:.\Generated_Source\PSoC4/CapSense_CSD_CSHL.c **** }
 1230              		.loc 1 1152 0 is_stmt 1 discriminator 3
 1231 00fc 181C     		mov	r0, r3
 1232 00fe BD46     		mov	sp, r7
ARM GAS  C:\Users\Sausy\AppData\Local\Temp\ccLQi9zI.s 			page 43


 1233 0100 04B0     		add	sp, sp, #16
 1234              		@ sp needed
 1235 0102 80BD     		pop	{r7, pc}
 1236              	.L74:
 1237              		.align	2
 1238              	.L73:
 1239 0104 00000000 		.word	CapSense_CSD_widgetNumber
 1240 0108 00000000 		.word	CapSense_CSD_sensorOnMask
 1241 010c 00000000 		.word	CapSense_CSD_sensorSignal
 1242 0110 10000000 		.word	CapSense_CSD_debounceCounter
 1243              		.cfi_endproc
 1244              	.LFE49:
 1245              		.size	CapSense_CSD_CheckIsSensorActive, .-CapSense_CSD_CheckIsSensorActive
 1246              		.section	.text.CapSense_CSD_CheckIsWidgetActive,"ax",%progbits
 1247              		.align	2
 1248              		.global	CapSense_CSD_CheckIsWidgetActive
 1249              		.code	16
 1250              		.thumb_func
 1251              		.type	CapSense_CSD_CheckIsWidgetActive, %function
 1252              	CapSense_CSD_CheckIsWidgetActive:
 1253              	.LFB50:
1153:.\Generated_Source\PSoC4/CapSense_CSD_CSHL.c **** 
1154:.\Generated_Source\PSoC4/CapSense_CSD_CSHL.c **** 
1155:.\Generated_Source\PSoC4/CapSense_CSD_CSHL.c **** /*******************************************************************************
1156:.\Generated_Source\PSoC4/CapSense_CSD_CSHL.c **** * Function Name: CapSense_CSD_CheckIsWidgetActive
1157:.\Generated_Source\PSoC4/CapSense_CSD_CSHL.c **** ********************************************************************************
1158:.\Generated_Source\PSoC4/CapSense_CSD_CSHL.c **** *
1159:.\Generated_Source\PSoC4/CapSense_CSD_CSHL.c **** * Summary:
1160:.\Generated_Source\PSoC4/CapSense_CSD_CSHL.c **** *  Compares the CapSense_sensorSignal[] array element to the finger threshold of 
1161:.\Generated_Source\PSoC4/CapSense_CSD_CSHL.c **** * the widget it belongs to. The hysteresis and debounce are taken into account. 
1162:.\Generated_Source\PSoC4/CapSense_CSD_CSHL.c **** * The hysteresis is added or subtracted from the finger threshold based on whether
1163:.\Generated_Source\PSoC4/CapSense_CSD_CSHL.c **** *  the sensor is currently active. If the sensor is active, the threshold is 
1164:.\Generated_Source\PSoC4/CapSense_CSD_CSHL.c **** *  lowered by the hysteresis amount. If the sensor is inactive, the threshold 
1165:.\Generated_Source\PSoC4/CapSense_CSD_CSHL.c **** *  is raised by the hysteresis amount. 
1166:.\Generated_Source\PSoC4/CapSense_CSD_CSHL.c **** * The debounce counter added to the sensor active transition. 
1167:.\Generated_Source\PSoC4/CapSense_CSD_CSHL.c **** * This function updates CapSense_sensorOnMask[] array element
1168:.\Generated_Source\PSoC4/CapSense_CSD_CSHL.c **** *
1169:.\Generated_Source\PSoC4/CapSense_CSD_CSHL.c **** * Parameters:
1170:.\Generated_Source\PSoC4/CapSense_CSD_CSHL.c **** *  widget:  widget number.
1171:.\Generated_Source\PSoC4/CapSense_CSD_CSHL.c **** *
1172:.\Generated_Source\PSoC4/CapSense_CSD_CSHL.c **** * Return:
1173:.\Generated_Source\PSoC4/CapSense_CSD_CSHL.c **** *  Returns widget sensor state 1 if one or more sensors within widget is/are 
1174:.\Generated_Source\PSoC4/CapSense_CSD_CSHL.c **** *  active, 0 if all sensors within widget are inactive.
1175:.\Generated_Source\PSoC4/CapSense_CSD_CSHL.c **** *
1176:.\Generated_Source\PSoC4/CapSense_CSD_CSHL.c **** * Global Variables:
1177:.\Generated_Source\PSoC4/CapSense_CSD_CSHL.c **** *  rawDataIndex[]: Contains the  1st sensor position in the widget
1178:.\Generated_Source\PSoC4/CapSense_CSD_CSHL.c **** * 
1179:.\Generated_Source\PSoC4/CapSense_CSD_CSHL.c **** * Side Effects:
1180:.\Generated_Source\PSoC4/CapSense_CSD_CSHL.c **** *  None
1181:.\Generated_Source\PSoC4/CapSense_CSD_CSHL.c **** *
1182:.\Generated_Source\PSoC4/CapSense_CSD_CSHL.c **** *******************************************************************************/
1183:.\Generated_Source\PSoC4/CapSense_CSD_CSHL.c **** uint32 CapSense_CSD_CheckIsWidgetActive(uint32 widget)
1184:.\Generated_Source\PSoC4/CapSense_CSD_CSHL.c **** {
 1254              		.loc 1 1184 0
 1255              		.cfi_startproc
 1256 0000 80B5     		push	{r7, lr}
 1257              		.cfi_def_cfa_offset 8
ARM GAS  C:\Users\Sausy\AppData\Local\Temp\ccLQi9zI.s 			page 44


 1258              		.cfi_offset 7, -8
 1259              		.cfi_offset 14, -4
 1260 0002 86B0     		sub	sp, sp, #24
 1261              		.cfi_def_cfa_offset 32
 1262 0004 00AF     		add	r7, sp, #0
 1263              		.cfi_def_cfa_register 7
 1264 0006 7860     		str	r0, [r7, #4]
1185:.\Generated_Source\PSoC4/CapSense_CSD_CSHL.c ****     uint32 rawIndex = (uint32)CapSense_CSD_rawDataIndex[widget];
 1265              		.loc 1 1185 0
 1266 0008 0023     		mov	r3, #0
 1267 000a 7B61     		str	r3, [r7, #20]
1186:.\Generated_Source\PSoC4/CapSense_CSD_CSHL.c ****     uint32 numOfSensors = (uint32)CapSense_CSD_numberOfSensors[widget] + rawIndex;
 1268              		.loc 1 1186 0
 1269 000c 0123     		mov	r3, #1
 1270 000e 1A1C     		mov	r2, r3
 1271 0010 7B69     		ldr	r3, [r7, #20]
 1272 0012 D318     		add	r3, r2, r3
 1273 0014 FB60     		str	r3, [r7, #12]
1187:.\Generated_Source\PSoC4/CapSense_CSD_CSHL.c ****     uint32 state = 0u;
 1274              		.loc 1 1187 0
 1275 0016 0023     		mov	r3, #0
 1276 0018 3B61     		str	r3, [r7, #16]
 1277              	.L77:
1188:.\Generated_Source\PSoC4/CapSense_CSD_CSHL.c **** 
1189:.\Generated_Source\PSoC4/CapSense_CSD_CSHL.c ****     /* Check all sensors of widget */
1190:.\Generated_Source\PSoC4/CapSense_CSD_CSHL.c ****     do
1191:.\Generated_Source\PSoC4/CapSense_CSD_CSHL.c ****     {
1192:.\Generated_Source\PSoC4/CapSense_CSD_CSHL.c ****         if(CapSense_CSD_CheckIsSensorActive((uint32)rawIndex) != 0u)
 1278              		.loc 1 1192 0
 1279 001a 7B69     		ldr	r3, [r7, #20]
 1280 001c 181C     		mov	r0, r3
 1281 001e FFF7FEFF 		bl	CapSense_CSD_CheckIsSensorActive
 1282 0022 031C     		mov	r3, r0
 1283 0024 002B     		cmp	r3, #0
 1284 0026 01D0     		beq	.L76
1193:.\Generated_Source\PSoC4/CapSense_CSD_CSHL.c ****         {
1194:.\Generated_Source\PSoC4/CapSense_CSD_CSHL.c ****             state = CapSense_CSD_SENSOR_IS_ACTIVE;
 1285              		.loc 1 1194 0
 1286 0028 0123     		mov	r3, #1
 1287 002a 3B61     		str	r3, [r7, #16]
 1288              	.L76:
1195:.\Generated_Source\PSoC4/CapSense_CSD_CSHL.c ****         }
1196:.\Generated_Source\PSoC4/CapSense_CSD_CSHL.c ****         rawIndex++;
 1289              		.loc 1 1196 0
 1290 002c 7B69     		ldr	r3, [r7, #20]
 1291 002e 0133     		add	r3, r3, #1
 1292 0030 7B61     		str	r3, [r7, #20]
1197:.\Generated_Source\PSoC4/CapSense_CSD_CSHL.c ****     }
1198:.\Generated_Source\PSoC4/CapSense_CSD_CSHL.c ****     while(rawIndex < numOfSensors);
 1293              		.loc 1 1198 0
 1294 0032 7A69     		ldr	r2, [r7, #20]
 1295 0034 FB68     		ldr	r3, [r7, #12]
 1296 0036 9A42     		cmp	r2, r3
 1297 0038 EFD3     		bcc	.L77
1199:.\Generated_Source\PSoC4/CapSense_CSD_CSHL.c ****     
1200:.\Generated_Source\PSoC4/CapSense_CSD_CSHL.c **** 
1201:.\Generated_Source\PSoC4/CapSense_CSD_CSHL.c ****     
ARM GAS  C:\Users\Sausy\AppData\Local\Temp\ccLQi9zI.s 			page 45


1202:.\Generated_Source\PSoC4/CapSense_CSD_CSHL.c ****     return state;
 1298              		.loc 1 1202 0
 1299 003a 3B69     		ldr	r3, [r7, #16]
1203:.\Generated_Source\PSoC4/CapSense_CSD_CSHL.c **** }
 1300              		.loc 1 1203 0
 1301 003c 181C     		mov	r0, r3
 1302 003e BD46     		mov	sp, r7
 1303 0040 06B0     		add	sp, sp, #24
 1304              		@ sp needed
 1305 0042 80BD     		pop	{r7, pc}
 1306              		.cfi_endproc
 1307              	.LFE50:
 1308              		.size	CapSense_CSD_CheckIsWidgetActive, .-CapSense_CSD_CheckIsWidgetActive
 1309              		.section	.text.CapSense_CSD_CheckIsAnyWidgetActive,"ax",%progbits
 1310              		.align	2
 1311              		.global	CapSense_CSD_CheckIsAnyWidgetActive
 1312              		.code	16
 1313              		.thumb_func
 1314              		.type	CapSense_CSD_CheckIsAnyWidgetActive, %function
 1315              	CapSense_CSD_CheckIsAnyWidgetActive:
 1316              	.LFB51:
1204:.\Generated_Source\PSoC4/CapSense_CSD_CSHL.c **** 
1205:.\Generated_Source\PSoC4/CapSense_CSD_CSHL.c **** 
1206:.\Generated_Source\PSoC4/CapSense_CSD_CSHL.c **** /*******************************************************************************
1207:.\Generated_Source\PSoC4/CapSense_CSD_CSHL.c **** * Function Name: CapSense_CSD_CheckIsAnyWidgetActive
1208:.\Generated_Source\PSoC4/CapSense_CSD_CSHL.c **** ********************************************************************************
1209:.\Generated_Source\PSoC4/CapSense_CSD_CSHL.c **** *
1210:.\Generated_Source\PSoC4/CapSense_CSD_CSHL.c **** * Summary:
1211:.\Generated_Source\PSoC4/CapSense_CSD_CSHL.c **** *  Compares all the sensors of the CapSense_CSD_Signal[] array to their finger 
1212:.\Generated_Source\PSoC4/CapSense_CSD_CSHL.c **** *  threshold. Calls CapSense_CSD_CheckIsWidgetActive() for each widget so 
1213:.\Generated_Source\PSoC4/CapSense_CSD_CSHL.c **** *  the CapSense_CSD_sensorOnMask[] array is up to date after calling this 
1214:.\Generated_Source\PSoC4/CapSense_CSD_CSHL.c **** *  function.
1215:.\Generated_Source\PSoC4/CapSense_CSD_CSHL.c **** *
1216:.\Generated_Source\PSoC4/CapSense_CSD_CSHL.c **** * Parameters:
1217:.\Generated_Source\PSoC4/CapSense_CSD_CSHL.c **** *  widget:  widget number.
1218:.\Generated_Source\PSoC4/CapSense_CSD_CSHL.c **** *
1219:.\Generated_Source\PSoC4/CapSense_CSD_CSHL.c **** * Return:
1220:.\Generated_Source\PSoC4/CapSense_CSD_CSHL.c **** *  Returns 1 if any widget is active, 0 none of widgets are active.
1221:.\Generated_Source\PSoC4/CapSense_CSD_CSHL.c **** *
1222:.\Generated_Source\PSoC4/CapSense_CSD_CSHL.c **** * Global Variables:
1223:.\Generated_Source\PSoC4/CapSense_CSD_CSHL.c **** *  None
1224:.\Generated_Source\PSoC4/CapSense_CSD_CSHL.c **** * 
1225:.\Generated_Source\PSoC4/CapSense_CSD_CSHL.c **** * Side Effects:
1226:.\Generated_Source\PSoC4/CapSense_CSD_CSHL.c **** *  None
1227:.\Generated_Source\PSoC4/CapSense_CSD_CSHL.c **** *
1228:.\Generated_Source\PSoC4/CapSense_CSD_CSHL.c **** *******************************************************************************/
1229:.\Generated_Source\PSoC4/CapSense_CSD_CSHL.c **** uint32 CapSense_CSD_CheckIsAnyWidgetActive(void)
1230:.\Generated_Source\PSoC4/CapSense_CSD_CSHL.c **** {
 1317              		.loc 1 1230 0
 1318              		.cfi_startproc
 1319 0000 80B5     		push	{r7, lr}
 1320              		.cfi_def_cfa_offset 8
 1321              		.cfi_offset 7, -8
 1322              		.cfi_offset 14, -4
 1323 0002 82B0     		sub	sp, sp, #8
 1324              		.cfi_def_cfa_offset 16
 1325 0004 00AF     		add	r7, sp, #0
ARM GAS  C:\Users\Sausy\AppData\Local\Temp\ccLQi9zI.s 			page 46


 1326              		.cfi_def_cfa_register 7
1231:.\Generated_Source\PSoC4/CapSense_CSD_CSHL.c **** 
1232:.\Generated_Source\PSoC4/CapSense_CSD_CSHL.c **** 	    uint32 i;
1233:.\Generated_Source\PSoC4/CapSense_CSD_CSHL.c ****     uint32 state = 0u;
 1327              		.loc 1 1233 0
 1328 0006 0023     		mov	r3, #0
 1329 0008 3B60     		str	r3, [r7]
1234:.\Generated_Source\PSoC4/CapSense_CSD_CSHL.c ****     
1235:.\Generated_Source\PSoC4/CapSense_CSD_CSHL.c ****     for(i = 0u; i < CapSense_CSD_TOTAL_WIDGET_COUNT; i++)
 1330              		.loc 1 1235 0
 1331 000a 0023     		mov	r3, #0
 1332 000c 7B60     		str	r3, [r7, #4]
 1333 000e 0BE0     		b	.L80
 1334              	.L82:
1236:.\Generated_Source\PSoC4/CapSense_CSD_CSHL.c ****     {
1237:.\Generated_Source\PSoC4/CapSense_CSD_CSHL.c ****         if (CapSense_CSD_CheckIsWidgetActive(i) != 0u)
 1335              		.loc 1 1237 0
 1336 0010 7B68     		ldr	r3, [r7, #4]
 1337 0012 181C     		mov	r0, r3
 1338 0014 FFF7FEFF 		bl	CapSense_CSD_CheckIsWidgetActive
 1339 0018 031C     		mov	r3, r0
 1340 001a 002B     		cmp	r3, #0
 1341 001c 01D0     		beq	.L81
1238:.\Generated_Source\PSoC4/CapSense_CSD_CSHL.c ****         {
1239:.\Generated_Source\PSoC4/CapSense_CSD_CSHL.c ****             state = CapSense_CSD_WIDGET_IS_ACTIVE;
 1342              		.loc 1 1239 0
 1343 001e 0123     		mov	r3, #1
 1344 0020 3B60     		str	r3, [r7]
 1345              	.L81:
1235:.\Generated_Source\PSoC4/CapSense_CSD_CSHL.c ****     for(i = 0u; i < CapSense_CSD_TOTAL_WIDGET_COUNT; i++)
 1346              		.loc 1 1235 0
 1347 0022 7B68     		ldr	r3, [r7, #4]
 1348 0024 0133     		add	r3, r3, #1
 1349 0026 7B60     		str	r3, [r7, #4]
 1350              	.L80:
1235:.\Generated_Source\PSoC4/CapSense_CSD_CSHL.c ****     for(i = 0u; i < CapSense_CSD_TOTAL_WIDGET_COUNT; i++)
 1351              		.loc 1 1235 0 is_stmt 0 discriminator 1
 1352 0028 7B68     		ldr	r3, [r7, #4]
 1353 002a 002B     		cmp	r3, #0
 1354 002c F0D0     		beq	.L82
1240:.\Generated_Source\PSoC4/CapSense_CSD_CSHL.c ****         }
1241:.\Generated_Source\PSoC4/CapSense_CSD_CSHL.c ****     }
1242:.\Generated_Source\PSoC4/CapSense_CSD_CSHL.c ****     
1243:.\Generated_Source\PSoC4/CapSense_CSD_CSHL.c **** 
1244:.\Generated_Source\PSoC4/CapSense_CSD_CSHL.c **** 
1245:.\Generated_Source\PSoC4/CapSense_CSD_CSHL.c ****     return state;
 1355              		.loc 1 1245 0 is_stmt 1
 1356 002e 3B68     		ldr	r3, [r7]
1246:.\Generated_Source\PSoC4/CapSense_CSD_CSHL.c **** }
 1357              		.loc 1 1246 0
 1358 0030 181C     		mov	r0, r3
 1359 0032 BD46     		mov	sp, r7
 1360 0034 02B0     		add	sp, sp, #8
 1361              		@ sp needed
 1362 0036 80BD     		pop	{r7, pc}
 1363              		.cfi_endproc
 1364              	.LFE51:
ARM GAS  C:\Users\Sausy\AppData\Local\Temp\ccLQi9zI.s 			page 47


 1365              		.size	CapSense_CSD_CheckIsAnyWidgetActive, .-CapSense_CSD_CheckIsAnyWidgetActive
 1366              		.section	.text.CapSense_CSD_EnableWidget,"ax",%progbits
 1367              		.align	2
 1368              		.global	CapSense_CSD_EnableWidget
 1369              		.code	16
 1370              		.thumb_func
 1371              		.type	CapSense_CSD_EnableWidget, %function
 1372              	CapSense_CSD_EnableWidget:
 1373              	.LFB52:
1247:.\Generated_Source\PSoC4/CapSense_CSD_CSHL.c **** 
1248:.\Generated_Source\PSoC4/CapSense_CSD_CSHL.c **** 
1249:.\Generated_Source\PSoC4/CapSense_CSD_CSHL.c **** /*******************************************************************************
1250:.\Generated_Source\PSoC4/CapSense_CSD_CSHL.c **** * Function Name: CapSense_CSD_EnableWidget
1251:.\Generated_Source\PSoC4/CapSense_CSD_CSHL.c **** ********************************************************************************
1252:.\Generated_Source\PSoC4/CapSense_CSD_CSHL.c **** *
1253:.\Generated_Source\PSoC4/CapSense_CSD_CSHL.c **** * Summary:
1254:.\Generated_Source\PSoC4/CapSense_CSD_CSHL.c **** *  Enables all the widget elements (sensors) to the scanning process.
1255:.\Generated_Source\PSoC4/CapSense_CSD_CSHL.c **** *
1256:.\Generated_Source\PSoC4/CapSense_CSD_CSHL.c **** * Parameters:
1257:.\Generated_Source\PSoC4/CapSense_CSD_CSHL.c **** *  widget:  widget number.
1258:.\Generated_Source\PSoC4/CapSense_CSD_CSHL.c **** *
1259:.\Generated_Source\PSoC4/CapSense_CSD_CSHL.c **** * Return:
1260:.\Generated_Source\PSoC4/CapSense_CSD_CSHL.c **** *  None
1261:.\Generated_Source\PSoC4/CapSense_CSD_CSHL.c **** *
1262:.\Generated_Source\PSoC4/CapSense_CSD_CSHL.c **** * Global Variables:
1263:.\Generated_Source\PSoC4/CapSense_CSD_CSHL.c **** *  CapSense_CSD_sensorEnableMask[] - used to store the sensor scanning 
1264:.\Generated_Source\PSoC4/CapSense_CSD_CSHL.c **** *  state.
1265:.\Generated_Source\PSoC4/CapSense_CSD_CSHL.c **** *  CapSense_CSD_sensorEnableMask[0] contains the masked bits for sensors 
1266:.\Generated_Source\PSoC4/CapSense_CSD_CSHL.c **** *  0 through 7 (sensor 0 is bit 0, sensor 1 is bit 1).
1267:.\Generated_Source\PSoC4/CapSense_CSD_CSHL.c **** *  CapSense_CSD_sensorEnableMask[1] contains the masked bits for 
1268:.\Generated_Source\PSoC4/CapSense_CSD_CSHL.c **** *  sensors 8 through 15 (if needed), and so on.
1269:.\Generated_Source\PSoC4/CapSense_CSD_CSHL.c **** *  0 - sensor doesn't scan by CapSense_CSD_ScanEnabledWidgets().
1270:.\Generated_Source\PSoC4/CapSense_CSD_CSHL.c **** *  1 - sensor scans by CapSense_CSD_ScanEnabledWidgets().
1271:.\Generated_Source\PSoC4/CapSense_CSD_CSHL.c **** * 
1272:.\Generated_Source\PSoC4/CapSense_CSD_CSHL.c **** * Side Effects:
1273:.\Generated_Source\PSoC4/CapSense_CSD_CSHL.c **** *  None
1274:.\Generated_Source\PSoC4/CapSense_CSD_CSHL.c **** *
1275:.\Generated_Source\PSoC4/CapSense_CSD_CSHL.c **** *******************************************************************************/
1276:.\Generated_Source\PSoC4/CapSense_CSD_CSHL.c **** void CapSense_CSD_EnableWidget(uint32 widget)
1277:.\Generated_Source\PSoC4/CapSense_CSD_CSHL.c **** {
 1374              		.loc 1 1277 0
 1375              		.cfi_startproc
 1376 0000 80B5     		push	{r7, lr}
 1377              		.cfi_def_cfa_offset 8
 1378              		.cfi_offset 7, -8
 1379              		.cfi_offset 14, -4
 1380 0002 84B0     		sub	sp, sp, #16
 1381              		.cfi_def_cfa_offset 24
 1382 0004 00AF     		add	r7, sp, #0
 1383              		.cfi_def_cfa_register 7
 1384 0006 7860     		str	r0, [r7, #4]
1278:.\Generated_Source\PSoC4/CapSense_CSD_CSHL.c **** 
1279:.\Generated_Source\PSoC4/CapSense_CSD_CSHL.c ****     uint8 rawIndex = CapSense_CSD_rawDataIndex[widget];
 1385              		.loc 1 1279 0
 1386 0008 3B1C     		mov	r3, r7
 1387 000a 0F33     		add	r3, r3, #15
 1388 000c 0022     		mov	r2, #0
ARM GAS  C:\Users\Sausy\AppData\Local\Temp\ccLQi9zI.s 			page 48


 1389 000e 1A70     		strb	r2, [r3]
1280:.\Generated_Source\PSoC4/CapSense_CSD_CSHL.c ****     uint8 numOfSensors = CapSense_CSD_numberOfSensors[widget] + rawIndex;
 1390              		.loc 1 1280 0
 1391 0010 0121     		mov	r1, #1
 1392 0012 3B1C     		mov	r3, r7
 1393 0014 0E33     		add	r3, r3, #14
 1394 0016 3A1C     		mov	r2, r7
 1395 0018 0F32     		add	r2, r2, #15
 1396 001a 1278     		ldrb	r2, [r2]
 1397 001c 8A18     		add	r2, r1, r2
 1398 001e 1A70     		strb	r2, [r3]
 1399              	.L85:
1281:.\Generated_Source\PSoC4/CapSense_CSD_CSHL.c ****     
1282:.\Generated_Source\PSoC4/CapSense_CSD_CSHL.c ****     /* Enable all sensors of widget */
1283:.\Generated_Source\PSoC4/CapSense_CSD_CSHL.c ****     do
1284:.\Generated_Source\PSoC4/CapSense_CSD_CSHL.c ****     {
1285:.\Generated_Source\PSoC4/CapSense_CSD_CSHL.c ****         CapSense_CSD_SetBitValue(CapSense_CSD_sensorEnableMask, (uint32)rawIndex, 1u);
 1400              		.loc 1 1285 0 discriminator 1
 1401 0020 3B1C     		mov	r3, r7
 1402 0022 0F33     		add	r3, r3, #15
 1403 0024 1B78     		ldrb	r3, [r3]
 1404 0026 0C4A     		ldr	r2, .L86
 1405 0028 101C     		mov	r0, r2
 1406 002a 191C     		mov	r1, r3
 1407 002c 0122     		mov	r2, #1
 1408 002e FFF7FEFF 		bl	CapSense_CSD_SetBitValue
1286:.\Generated_Source\PSoC4/CapSense_CSD_CSHL.c ****         rawIndex++;
 1409              		.loc 1 1286 0 discriminator 1
 1410 0032 3B1C     		mov	r3, r7
 1411 0034 0F33     		add	r3, r3, #15
 1412 0036 1A78     		ldrb	r2, [r3]
 1413 0038 3B1C     		mov	r3, r7
 1414 003a 0F33     		add	r3, r3, #15
 1415 003c 0132     		add	r2, r2, #1
 1416 003e 1A70     		strb	r2, [r3]
1287:.\Generated_Source\PSoC4/CapSense_CSD_CSHL.c ****     }
1288:.\Generated_Source\PSoC4/CapSense_CSD_CSHL.c ****     while(rawIndex < numOfSensors);
 1417              		.loc 1 1288 0 discriminator 1
 1418 0040 3A1C     		mov	r2, r7
 1419 0042 0F32     		add	r2, r2, #15
 1420 0044 3B1C     		mov	r3, r7
 1421 0046 0E33     		add	r3, r3, #14
 1422 0048 1278     		ldrb	r2, [r2]
 1423 004a 1B78     		ldrb	r3, [r3]
 1424 004c 9A42     		cmp	r2, r3
 1425 004e E7D3     		bcc	.L85
1289:.\Generated_Source\PSoC4/CapSense_CSD_CSHL.c **** }
 1426              		.loc 1 1289 0
 1427 0050 BD46     		mov	sp, r7
 1428 0052 04B0     		add	sp, sp, #16
 1429              		@ sp needed
 1430 0054 80BD     		pop	{r7, pc}
 1431              	.L87:
 1432 0056 C046     		.align	2
 1433              	.L86:
 1434 0058 00000000 		.word	CapSense_CSD_sensorEnableMask
 1435              		.cfi_endproc
ARM GAS  C:\Users\Sausy\AppData\Local\Temp\ccLQi9zI.s 			page 49


 1436              	.LFE52:
 1437              		.size	CapSense_CSD_EnableWidget, .-CapSense_CSD_EnableWidget
 1438              		.section	.text.CapSense_CSD_DisableWidget,"ax",%progbits
 1439              		.align	2
 1440              		.global	CapSense_CSD_DisableWidget
 1441              		.code	16
 1442              		.thumb_func
 1443              		.type	CapSense_CSD_DisableWidget, %function
 1444              	CapSense_CSD_DisableWidget:
 1445              	.LFB53:
1290:.\Generated_Source\PSoC4/CapSense_CSD_CSHL.c **** 
1291:.\Generated_Source\PSoC4/CapSense_CSD_CSHL.c **** 
1292:.\Generated_Source\PSoC4/CapSense_CSD_CSHL.c **** /*******************************************************************************
1293:.\Generated_Source\PSoC4/CapSense_CSD_CSHL.c **** * Function Name: CapSense_CSD_DisableWidget
1294:.\Generated_Source\PSoC4/CapSense_CSD_CSHL.c **** ********************************************************************************
1295:.\Generated_Source\PSoC4/CapSense_CSD_CSHL.c **** *
1296:.\Generated_Source\PSoC4/CapSense_CSD_CSHL.c **** * Summary:
1297:.\Generated_Source\PSoC4/CapSense_CSD_CSHL.c **** *  Disables all the widget elements (sensors) from the scanning process.
1298:.\Generated_Source\PSoC4/CapSense_CSD_CSHL.c **** *
1299:.\Generated_Source\PSoC4/CapSense_CSD_CSHL.c **** * Parameters:
1300:.\Generated_Source\PSoC4/CapSense_CSD_CSHL.c **** *  widget:  widget number.
1301:.\Generated_Source\PSoC4/CapSense_CSD_CSHL.c **** *
1302:.\Generated_Source\PSoC4/CapSense_CSD_CSHL.c **** * Return:
1303:.\Generated_Source\PSoC4/CapSense_CSD_CSHL.c **** *  None
1304:.\Generated_Source\PSoC4/CapSense_CSD_CSHL.c **** *
1305:.\Generated_Source\PSoC4/CapSense_CSD_CSHL.c **** * Global Variables:
1306:.\Generated_Source\PSoC4/CapSense_CSD_CSHL.c **** *  CapSense_CSD_sensorEnableMask[] - used to store the sensor scanning 
1307:.\Generated_Source\PSoC4/CapSense_CSD_CSHL.c **** *  state.
1308:.\Generated_Source\PSoC4/CapSense_CSD_CSHL.c **** *  CapSense_CSD_sensorEnableMask[0] contains the masked bits for sensors 
1309:.\Generated_Source\PSoC4/CapSense_CSD_CSHL.c **** *  0 through 7 (sensor 0 is bit 0, sensor 1 is bit 1).
1310:.\Generated_Source\PSoC4/CapSense_CSD_CSHL.c **** *  CapSense_CSD_sensorEnableMask[1] contains the masked bits for 
1311:.\Generated_Source\PSoC4/CapSense_CSD_CSHL.c **** *  sensors 8 through 15 (if needed), and so on.
1312:.\Generated_Source\PSoC4/CapSense_CSD_CSHL.c **** *  0 - sensor isn't scanned by CapSense_CSD_ScanEnabledWidgets().
1313:.\Generated_Source\PSoC4/CapSense_CSD_CSHL.c **** *  1 - sensor is scanned by CapSense_CSD_ScanEnabledWidgets().
1314:.\Generated_Source\PSoC4/CapSense_CSD_CSHL.c **** * 
1315:.\Generated_Source\PSoC4/CapSense_CSD_CSHL.c **** * Side Effects:
1316:.\Generated_Source\PSoC4/CapSense_CSD_CSHL.c **** *  None
1317:.\Generated_Source\PSoC4/CapSense_CSD_CSHL.c **** *
1318:.\Generated_Source\PSoC4/CapSense_CSD_CSHL.c **** *******************************************************************************/
1319:.\Generated_Source\PSoC4/CapSense_CSD_CSHL.c **** void CapSense_CSD_DisableWidget(uint32 widget)
1320:.\Generated_Source\PSoC4/CapSense_CSD_CSHL.c **** {
 1446              		.loc 1 1320 0
 1447              		.cfi_startproc
 1448 0000 80B5     		push	{r7, lr}
 1449              		.cfi_def_cfa_offset 8
 1450              		.cfi_offset 7, -8
 1451              		.cfi_offset 14, -4
 1452 0002 84B0     		sub	sp, sp, #16
 1453              		.cfi_def_cfa_offset 24
 1454 0004 00AF     		add	r7, sp, #0
 1455              		.cfi_def_cfa_register 7
 1456 0006 7860     		str	r0, [r7, #4]
1321:.\Generated_Source\PSoC4/CapSense_CSD_CSHL.c ****     uint8 rawIndex = CapSense_CSD_rawDataIndex[widget];
 1457              		.loc 1 1321 0
 1458 0008 3B1C     		mov	r3, r7
 1459 000a 0F33     		add	r3, r3, #15
 1460 000c 0022     		mov	r2, #0
ARM GAS  C:\Users\Sausy\AppData\Local\Temp\ccLQi9zI.s 			page 50


 1461 000e 1A70     		strb	r2, [r3]
1322:.\Generated_Source\PSoC4/CapSense_CSD_CSHL.c ****     uint8 numOfSensors = CapSense_CSD_numberOfSensors[widget] + rawIndex;
 1462              		.loc 1 1322 0
 1463 0010 0121     		mov	r1, #1
 1464 0012 3B1C     		mov	r3, r7
 1465 0014 0E33     		add	r3, r3, #14
 1466 0016 3A1C     		mov	r2, r7
 1467 0018 0F32     		add	r2, r2, #15
 1468 001a 1278     		ldrb	r2, [r2]
 1469 001c 8A18     		add	r2, r1, r2
 1470 001e 1A70     		strb	r2, [r3]
 1471              	.L89:
1323:.\Generated_Source\PSoC4/CapSense_CSD_CSHL.c ****    
1324:.\Generated_Source\PSoC4/CapSense_CSD_CSHL.c ****     /* Disable all sensors of widget */
1325:.\Generated_Source\PSoC4/CapSense_CSD_CSHL.c ****     do
1326:.\Generated_Source\PSoC4/CapSense_CSD_CSHL.c ****     {
1327:.\Generated_Source\PSoC4/CapSense_CSD_CSHL.c **** 
1328:.\Generated_Source\PSoC4/CapSense_CSD_CSHL.c ****         CapSense_CSD_SetBitValue(CapSense_CSD_sensorEnableMask, (uint32)rawIndex, 0u);
 1472              		.loc 1 1328 0 discriminator 1
 1473 0020 3B1C     		mov	r3, r7
 1474 0022 0F33     		add	r3, r3, #15
 1475 0024 1B78     		ldrb	r3, [r3]
 1476 0026 0C4A     		ldr	r2, .L90
 1477 0028 101C     		mov	r0, r2
 1478 002a 191C     		mov	r1, r3
 1479 002c 0022     		mov	r2, #0
 1480 002e FFF7FEFF 		bl	CapSense_CSD_SetBitValue
1329:.\Generated_Source\PSoC4/CapSense_CSD_CSHL.c ****         rawIndex++;
 1481              		.loc 1 1329 0 discriminator 1
 1482 0032 3B1C     		mov	r3, r7
 1483 0034 0F33     		add	r3, r3, #15
 1484 0036 1A78     		ldrb	r2, [r3]
 1485 0038 3B1C     		mov	r3, r7
 1486 003a 0F33     		add	r3, r3, #15
 1487 003c 0132     		add	r2, r2, #1
 1488 003e 1A70     		strb	r2, [r3]
1330:.\Generated_Source\PSoC4/CapSense_CSD_CSHL.c ****     }
1331:.\Generated_Source\PSoC4/CapSense_CSD_CSHL.c ****     while(rawIndex < numOfSensors);
 1489              		.loc 1 1331 0 discriminator 1
 1490 0040 3A1C     		mov	r2, r7
 1491 0042 0F32     		add	r2, r2, #15
 1492 0044 3B1C     		mov	r3, r7
 1493 0046 0E33     		add	r3, r3, #14
 1494 0048 1278     		ldrb	r2, [r2]
 1495 004a 1B78     		ldrb	r3, [r3]
 1496 004c 9A42     		cmp	r2, r3
 1497 004e E7D3     		bcc	.L89
1332:.\Generated_Source\PSoC4/CapSense_CSD_CSHL.c **** }
 1498              		.loc 1 1332 0
 1499 0050 BD46     		mov	sp, r7
 1500 0052 04B0     		add	sp, sp, #16
 1501              		@ sp needed
 1502 0054 80BD     		pop	{r7, pc}
 1503              	.L91:
 1504 0056 C046     		.align	2
 1505              	.L90:
 1506 0058 00000000 		.word	CapSense_CSD_sensorEnableMask
ARM GAS  C:\Users\Sausy\AppData\Local\Temp\ccLQi9zI.s 			page 51


 1507              		.cfi_endproc
 1508              	.LFE53:
 1509              		.size	CapSense_CSD_DisableWidget, .-CapSense_CSD_DisableWidget
 1510              		.section	.text.CapSense_CSD_IIR4Filter,"ax",%progbits
 1511              		.align	2
 1512              		.global	CapSense_CSD_IIR4Filter
 1513              		.code	16
 1514              		.thumb_func
 1515              		.type	CapSense_CSD_IIR4Filter, %function
 1516              	CapSense_CSD_IIR4Filter:
 1517              	.LFB54:
1333:.\Generated_Source\PSoC4/CapSense_CSD_CSHL.c **** 
1334:.\Generated_Source\PSoC4/CapSense_CSD_CSHL.c **** 
1335:.\Generated_Source\PSoC4/CapSense_CSD_CSHL.c **** #if(CapSense_CSD_TOTAL_CENTROIDS_BASIC_COUNT)
1336:.\Generated_Source\PSoC4/CapSense_CSD_CSHL.c ****     /*******************************************************************************
1337:.\Generated_Source\PSoC4/CapSense_CSD_CSHL.c ****     * Function Name: CapSense_CSD_FindMaximum
1338:.\Generated_Source\PSoC4/CapSense_CSD_CSHL.c ****     ********************************************************************************
1339:.\Generated_Source\PSoC4/CapSense_CSD_CSHL.c ****     *
1340:.\Generated_Source\PSoC4/CapSense_CSD_CSHL.c ****     * Summary:
1341:.\Generated_Source\PSoC4/CapSense_CSD_CSHL.c ****     *  Finds the index of the maximum element within a defined centroid. Checks 
1342:.\Generated_Source\PSoC4/CapSense_CSD_CSHL.c ****     *  CapSense_CSD_sensorSignal[] within a defined centroid and 
1343:.\Generated_Source\PSoC4/CapSense_CSD_CSHL.c ****     *  returns the index of the maximum element. The values below the finger threshold are 
1344:.\Generated_Source\PSoC4/CapSense_CSD_CSHL.c ****     *  ignored.
1345:.\Generated_Source\PSoC4/CapSense_CSD_CSHL.c ****     *  The centroid is defined by offset of the first element and a number of elements - count.
1346:.\Generated_Source\PSoC4/CapSense_CSD_CSHL.c ****     *  The diplexed centroid requires at least two consecutive elements above
1347:.\Generated_Source\PSoC4/CapSense_CSD_CSHL.c ****     *  FingerThreshold to find the index of the maximum element.
1348:.\Generated_Source\PSoC4/CapSense_CSD_CSHL.c ****     * 
1349:.\Generated_Source\PSoC4/CapSense_CSD_CSHL.c ****     * Parameters:
1350:.\Generated_Source\PSoC4/CapSense_CSD_CSHL.c ****     *  offset:  Start index of centroid in CapSense_CSD_sensorSignal[] array.
1351:.\Generated_Source\PSoC4/CapSense_CSD_CSHL.c ****     *  count:   number of elements within centroid.
1352:.\Generated_Source\PSoC4/CapSense_CSD_CSHL.c ****     *  fingerThreshold:  Finger threshold.
1353:.\Generated_Source\PSoC4/CapSense_CSD_CSHL.c ****     *  diplex:   pointer to diplex table.
1354:.\Generated_Source\PSoC4/CapSense_CSD_CSHL.c ****     * 
1355:.\Generated_Source\PSoC4/CapSense_CSD_CSHL.c ****     * Return:
1356:.\Generated_Source\PSoC4/CapSense_CSD_CSHL.c ****     *  Returns the index of the maximum element within a defined centroid.
1357:.\Generated_Source\PSoC4/CapSense_CSD_CSHL.c ****     *  If the index of the maximum element isn't found it returns 0xFF.
1358:.\Generated_Source\PSoC4/CapSense_CSD_CSHL.c **** 	*
1359:.\Generated_Source\PSoC4/CapSense_CSD_CSHL.c **** 	* Global Variables:
1360:.\Generated_Source\PSoC4/CapSense_CSD_CSHL.c **** 	*  CapSense_CSD_startOfSlider[] - contains the index of the first slider element
1361:.\Generated_Source\PSoC4/CapSense_CSD_CSHL.c **** 	* 
1362:.\Generated_Source\PSoC4/CapSense_CSD_CSHL.c **** 	* Side Effects: 
1363:.\Generated_Source\PSoC4/CapSense_CSD_CSHL.c **** 	*  None
1364:.\Generated_Source\PSoC4/CapSense_CSD_CSHL.c **** 	* 
1365:.\Generated_Source\PSoC4/CapSense_CSD_CSHL.c ****     *******************************************************************************/
1366:.\Generated_Source\PSoC4/CapSense_CSD_CSHL.c **** 	#if (CapSense_CSD_IS_DIPLEX_SLIDER)
1367:.\Generated_Source\PSoC4/CapSense_CSD_CSHL.c **** 		uint8 CapSense_CSD_FindMaximum(uint8 offset, uint8 count, uint16 fingerThreshold, const uint8 *di
1368:.\Generated_Source\PSoC4/CapSense_CSD_CSHL.c **** 	#else 
1369:.\Generated_Source\PSoC4/CapSense_CSD_CSHL.c **** 		uint8 CapSense_CSD_FindMaximum(uint8 offset, uint8 count, uint16 fingerThreshold)
1370:.\Generated_Source\PSoC4/CapSense_CSD_CSHL.c **** 	#endif /* (CapSense_CSD_IS_DIPLEX_SLIDER) */
1371:.\Generated_Source\PSoC4/CapSense_CSD_CSHL.c ****     {
1372:.\Generated_Source\PSoC4/CapSense_CSD_CSHL.c ****         uint8 i;
1373:.\Generated_Source\PSoC4/CapSense_CSD_CSHL.c ****         #if (CapSense_CSD_IS_DIPLEX_SLIDER)        
1374:.\Generated_Source\PSoC4/CapSense_CSD_CSHL.c ****             uint8 curPos = 0u;
1375:.\Generated_Source\PSoC4/CapSense_CSD_CSHL.c ****             /* No centroid at Start */
1376:.\Generated_Source\PSoC4/CapSense_CSD_CSHL.c ****             uint8 curCntrdSize = 0u;
1377:.\Generated_Source\PSoC4/CapSense_CSD_CSHL.c ****             uint8 curCtrdStartPos = CapSense_CSD_MAXIMUM_CENTROID;
1378:.\Generated_Source\PSoC4/CapSense_CSD_CSHL.c ****             /* Biggest centroid is zero */
ARM GAS  C:\Users\Sausy\AppData\Local\Temp\ccLQi9zI.s 			page 52


1379:.\Generated_Source\PSoC4/CapSense_CSD_CSHL.c ****             uint8 biggestCtrdSize = 0u;
1380:.\Generated_Source\PSoC4/CapSense_CSD_CSHL.c ****             uint8 biggestCtrdStartPos = 0u;
1381:.\Generated_Source\PSoC4/CapSense_CSD_CSHL.c ****         #endif /* (CapSense_CSD_IS_DIPLEX_SLIDER) */
1382:.\Generated_Source\PSoC4/CapSense_CSD_CSHL.c ****         uint8 maximum = CapSense_CSD_MAXIMUM_CENTROID;
1383:.\Generated_Source\PSoC4/CapSense_CSD_CSHL.c **** 		
1384:.\Generated_Source\PSoC4/CapSense_CSD_CSHL.c ****         uint16 temp = 0u;
1385:.\Generated_Source\PSoC4/CapSense_CSD_CSHL.c ****         uint16 *startOfSlider = &CapSense_CSD_sensorSignal[offset];
1386:.\Generated_Source\PSoC4/CapSense_CSD_CSHL.c **** 
1387:.\Generated_Source\PSoC4/CapSense_CSD_CSHL.c ****         #if (CapSense_CSD_IS_DIPLEX_SLIDER)        
1388:.\Generated_Source\PSoC4/CapSense_CSD_CSHL.c ****             if(diplex != 0u)
1389:.\Generated_Source\PSoC4/CapSense_CSD_CSHL.c ****             {
1390:.\Generated_Source\PSoC4/CapSense_CSD_CSHL.c ****                 /* Initialize */
1391:.\Generated_Source\PSoC4/CapSense_CSD_CSHL.c ****                 i = 0u;
1392:.\Generated_Source\PSoC4/CapSense_CSD_CSHL.c ****                 
1393:.\Generated_Source\PSoC4/CapSense_CSD_CSHL.c ****                 /* Make slider x2 as Diplexed */
1394:.\Generated_Source\PSoC4/CapSense_CSD_CSHL.c ****                 count <<= 1u;
1395:.\Generated_Source\PSoC4/CapSense_CSD_CSHL.c ****                 while(1u)
1396:.\Generated_Source\PSoC4/CapSense_CSD_CSHL.c ****                 { 
1397:.\Generated_Source\PSoC4/CapSense_CSD_CSHL.c ****                     if (startOfSlider[curPos] > 0u)    /* Looking for centroids */
1398:.\Generated_Source\PSoC4/CapSense_CSD_CSHL.c ****                     {
1399:.\Generated_Source\PSoC4/CapSense_CSD_CSHL.c ****                         if (curCtrdStartPos == CapSense_CSD_MAXIMUM_CENTROID)
1400:.\Generated_Source\PSoC4/CapSense_CSD_CSHL.c ****                         {
1401:.\Generated_Source\PSoC4/CapSense_CSD_CSHL.c ****                             /* Start of centroid */
1402:.\Generated_Source\PSoC4/CapSense_CSD_CSHL.c ****                             curCtrdStartPos = i;
1403:.\Generated_Source\PSoC4/CapSense_CSD_CSHL.c ****                             curCntrdSize++;
1404:.\Generated_Source\PSoC4/CapSense_CSD_CSHL.c ****                         }
1405:.\Generated_Source\PSoC4/CapSense_CSD_CSHL.c ****                         else
1406:.\Generated_Source\PSoC4/CapSense_CSD_CSHL.c ****                         {
1407:.\Generated_Source\PSoC4/CapSense_CSD_CSHL.c ****                             curCntrdSize++;
1408:.\Generated_Source\PSoC4/CapSense_CSD_CSHL.c ****                         }
1409:.\Generated_Source\PSoC4/CapSense_CSD_CSHL.c ****                     }
1410:.\Generated_Source\PSoC4/CapSense_CSD_CSHL.c ****                     else   /* Select biggest and indicate zero start */
1411:.\Generated_Source\PSoC4/CapSense_CSD_CSHL.c ****                     {          
1412:.\Generated_Source\PSoC4/CapSense_CSD_CSHL.c ****                         if(curCntrdSize > 0u)
1413:.\Generated_Source\PSoC4/CapSense_CSD_CSHL.c ****                         {
1414:.\Generated_Source\PSoC4/CapSense_CSD_CSHL.c ****                             /* We are at the end of current */
1415:.\Generated_Source\PSoC4/CapSense_CSD_CSHL.c ****                             if(curCntrdSize > biggestCtrdSize)
1416:.\Generated_Source\PSoC4/CapSense_CSD_CSHL.c ****                             {
1417:.\Generated_Source\PSoC4/CapSense_CSD_CSHL.c ****                                 biggestCtrdSize = curCntrdSize;
1418:.\Generated_Source\PSoC4/CapSense_CSD_CSHL.c ****                                 biggestCtrdStartPos = curCtrdStartPos;
1419:.\Generated_Source\PSoC4/CapSense_CSD_CSHL.c ****                             }
1420:.\Generated_Source\PSoC4/CapSense_CSD_CSHL.c ****                             
1421:.\Generated_Source\PSoC4/CapSense_CSD_CSHL.c ****                             curCntrdSize = 0u;
1422:.\Generated_Source\PSoC4/CapSense_CSD_CSHL.c ****                             curCtrdStartPos = CapSense_CSD_MAXIMUM_CENTROID;
1423:.\Generated_Source\PSoC4/CapSense_CSD_CSHL.c ****                         }
1424:.\Generated_Source\PSoC4/CapSense_CSD_CSHL.c ****                     }
1425:.\Generated_Source\PSoC4/CapSense_CSD_CSHL.c ****                     
1426:.\Generated_Source\PSoC4/CapSense_CSD_CSHL.c ****                     i++; 
1427:.\Generated_Source\PSoC4/CapSense_CSD_CSHL.c ****                     curPos = diplex[i];
1428:.\Generated_Source\PSoC4/CapSense_CSD_CSHL.c ****                     if(i == count)
1429:.\Generated_Source\PSoC4/CapSense_CSD_CSHL.c ****                     {
1430:.\Generated_Source\PSoC4/CapSense_CSD_CSHL.c ****                         break;
1431:.\Generated_Source\PSoC4/CapSense_CSD_CSHL.c ****                     }            
1432:.\Generated_Source\PSoC4/CapSense_CSD_CSHL.c ****                 }
1433:.\Generated_Source\PSoC4/CapSense_CSD_CSHL.c ****                     
1434:.\Generated_Source\PSoC4/CapSense_CSD_CSHL.c ****                     /* Find biggest centroid if two are same size, last one wins
1435:.\Generated_Source\PSoC4/CapSense_CSD_CSHL.c ****                        We are at the end of current */
ARM GAS  C:\Users\Sausy\AppData\Local\Temp\ccLQi9zI.s 			page 53


1436:.\Generated_Source\PSoC4/CapSense_CSD_CSHL.c ****                 if (curCntrdSize >= biggestCtrdSize) 
1437:.\Generated_Source\PSoC4/CapSense_CSD_CSHL.c ****                 {
1438:.\Generated_Source\PSoC4/CapSense_CSD_CSHL.c ****                     biggestCtrdSize = curCntrdSize;
1439:.\Generated_Source\PSoC4/CapSense_CSD_CSHL.c ****                     biggestCtrdStartPos = curCtrdStartPos;
1440:.\Generated_Source\PSoC4/CapSense_CSD_CSHL.c ****                 }
1441:.\Generated_Source\PSoC4/CapSense_CSD_CSHL.c ****             }
1442:.\Generated_Source\PSoC4/CapSense_CSD_CSHL.c ****             else
1443:.\Generated_Source\PSoC4/CapSense_CSD_CSHL.c ****             {
1444:.\Generated_Source\PSoC4/CapSense_CSD_CSHL.c ****                 /* Without diplexing */ 
1445:.\Generated_Source\PSoC4/CapSense_CSD_CSHL.c ****                 biggestCtrdSize = count;
1446:.\Generated_Source\PSoC4/CapSense_CSD_CSHL.c ****             }
1447:.\Generated_Source\PSoC4/CapSense_CSD_CSHL.c ****                         
1448:.\Generated_Source\PSoC4/CapSense_CSD_CSHL.c **** 
1449:.\Generated_Source\PSoC4/CapSense_CSD_CSHL.c ****             /* Check centroid size */
1450:.\Generated_Source\PSoC4/CapSense_CSD_CSHL.c ****             #if (CapSense_CSD_IS_NON_DIPLEX_SLIDER)
1451:.\Generated_Source\PSoC4/CapSense_CSD_CSHL.c ****                 if((biggestCtrdSize >= 2u) || ((biggestCtrdSize == 1u) && (diplex == 0u)))
1452:.\Generated_Source\PSoC4/CapSense_CSD_CSHL.c ****             #else                    
1453:.\Generated_Source\PSoC4/CapSense_CSD_CSHL.c ****                 if(biggestCtrdSize >= 2u)
1454:.\Generated_Source\PSoC4/CapSense_CSD_CSHL.c ****             #endif /* (CapSense_CSD_IS_NON_DIPLEX_SLIDER) */
1455:.\Generated_Source\PSoC4/CapSense_CSD_CSHL.c ****                 {
1456:.\Generated_Source\PSoC4/CapSense_CSD_CSHL.c ****                     for (i = biggestCtrdStartPos; i < (biggestCtrdStartPos + biggestCtrdSize); i++)
1457:.\Generated_Source\PSoC4/CapSense_CSD_CSHL.c ****                     {
1458:.\Generated_Source\PSoC4/CapSense_CSD_CSHL.c ****                         #if (CapSense_CSD_IS_DIPLEX_SLIDER && CapSense_CSD_IS_NON_DIPLEX_SLIDER)
1459:.\Generated_Source\PSoC4/CapSense_CSD_CSHL.c ****                             if (diplex == 0u)
1460:.\Generated_Source\PSoC4/CapSense_CSD_CSHL.c ****                             {
1461:.\Generated_Source\PSoC4/CapSense_CSD_CSHL.c ****                                 curPos = i;
1462:.\Generated_Source\PSoC4/CapSense_CSD_CSHL.c ****                             }
1463:.\Generated_Source\PSoC4/CapSense_CSD_CSHL.c ****                             else
1464:.\Generated_Source\PSoC4/CapSense_CSD_CSHL.c ****                             {
1465:.\Generated_Source\PSoC4/CapSense_CSD_CSHL.c ****                                 curPos = diplex[i];
1466:.\Generated_Source\PSoC4/CapSense_CSD_CSHL.c ****                             }                    
1467:.\Generated_Source\PSoC4/CapSense_CSD_CSHL.c ****                         #elif (CapSense_CSD_IS_DIPLEX_SLIDER)                    
1468:.\Generated_Source\PSoC4/CapSense_CSD_CSHL.c ****                             curPos = diplex[i];                    
1469:.\Generated_Source\PSoC4/CapSense_CSD_CSHL.c ****                         #endif /* (CapSense_CSD_IS_DIPLEX_SLIDER && CapSense_CSD_IS_NON_DIPLEX_SLID
1470:.\Generated_Source\PSoC4/CapSense_CSD_CSHL.c ****                         /* Looking for greater element within centroid */
1471:.\Generated_Source\PSoC4/CapSense_CSD_CSHL.c ****                         if(startOfSlider[curPos] > fingerThreshold)
1472:.\Generated_Source\PSoC4/CapSense_CSD_CSHL.c ****                         {
1473:.\Generated_Source\PSoC4/CapSense_CSD_CSHL.c ****                             if(startOfSlider[curPos] > temp)
1474:.\Generated_Source\PSoC4/CapSense_CSD_CSHL.c ****                             {
1475:.\Generated_Source\PSoC4/CapSense_CSD_CSHL.c ****                                 maximum = i;
1476:.\Generated_Source\PSoC4/CapSense_CSD_CSHL.c ****                                 temp = startOfSlider[curPos];
1477:.\Generated_Source\PSoC4/CapSense_CSD_CSHL.c ****                             }
1478:.\Generated_Source\PSoC4/CapSense_CSD_CSHL.c ****                         }
1479:.\Generated_Source\PSoC4/CapSense_CSD_CSHL.c ****                     }
1480:.\Generated_Source\PSoC4/CapSense_CSD_CSHL.c ****                 } 
1481:.\Generated_Source\PSoC4/CapSense_CSD_CSHL.c ****         #else
1482:.\Generated_Source\PSoC4/CapSense_CSD_CSHL.c ****             for (i = 0u; i < count; i++)
1483:.\Generated_Source\PSoC4/CapSense_CSD_CSHL.c ****             {                      
1484:.\Generated_Source\PSoC4/CapSense_CSD_CSHL.c ****                 /* Looking for greater element within centroid */
1485:.\Generated_Source\PSoC4/CapSense_CSD_CSHL.c ****                 if(startOfSlider[i] > fingerThreshold)
1486:.\Generated_Source\PSoC4/CapSense_CSD_CSHL.c ****                 {
1487:.\Generated_Source\PSoC4/CapSense_CSD_CSHL.c ****                     if(startOfSlider[i] > temp)
1488:.\Generated_Source\PSoC4/CapSense_CSD_CSHL.c ****                     {
1489:.\Generated_Source\PSoC4/CapSense_CSD_CSHL.c ****                         maximum = i;
1490:.\Generated_Source\PSoC4/CapSense_CSD_CSHL.c ****                         temp = startOfSlider[i];
1491:.\Generated_Source\PSoC4/CapSense_CSD_CSHL.c ****                     }
1492:.\Generated_Source\PSoC4/CapSense_CSD_CSHL.c ****                 }
ARM GAS  C:\Users\Sausy\AppData\Local\Temp\ccLQi9zI.s 			page 54


1493:.\Generated_Source\PSoC4/CapSense_CSD_CSHL.c ****             }    
1494:.\Generated_Source\PSoC4/CapSense_CSD_CSHL.c ****         #endif /* (CapSense_CSD_IS_DIPLEX_SLIDER) */
1495:.\Generated_Source\PSoC4/CapSense_CSD_CSHL.c ****         return (maximum);
1496:.\Generated_Source\PSoC4/CapSense_CSD_CSHL.c ****     }
1497:.\Generated_Source\PSoC4/CapSense_CSD_CSHL.c ****     
1498:.\Generated_Source\PSoC4/CapSense_CSD_CSHL.c ****     
1499:.\Generated_Source\PSoC4/CapSense_CSD_CSHL.c ****     /*******************************************************************************
1500:.\Generated_Source\PSoC4/CapSense_CSD_CSHL.c ****     * Function Name: CapSense_CSD_CalcCentroid
1501:.\Generated_Source\PSoC4/CapSense_CSD_CSHL.c ****     ********************************************************************************
1502:.\Generated_Source\PSoC4/CapSense_CSD_CSHL.c ****     *
1503:.\Generated_Source\PSoC4/CapSense_CSD_CSHL.c ****     * Summary:
1504:.\Generated_Source\PSoC4/CapSense_CSD_CSHL.c ****     *  Returns a position value calculated according to the index of the maximum element and API
1505:.\Generated_Source\PSoC4/CapSense_CSD_CSHL.c ****     *  resolution.
1506:.\Generated_Source\PSoC4/CapSense_CSD_CSHL.c ****     *
1507:.\Generated_Source\PSoC4/CapSense_CSD_CSHL.c ****     * Parameters:
1508:.\Generated_Source\PSoC4/CapSense_CSD_CSHL.c ****     *  type:  widget type.
1509:.\Generated_Source\PSoC4/CapSense_CSD_CSHL.c ****     *  diplex:  pointer to diplex table.
1510:.\Generated_Source\PSoC4/CapSense_CSD_CSHL.c ****     *  maximum:  Index of maximum element within centroid.
1511:.\Generated_Source\PSoC4/CapSense_CSD_CSHL.c ****     *  offset:   Start index of centroid in CapSense_CSD_sensorSignal[] array.
1512:.\Generated_Source\PSoC4/CapSense_CSD_CSHL.c ****     *  count:    Number of elements within centroid.
1513:.\Generated_Source\PSoC4/CapSense_CSD_CSHL.c ****     *  resolution:  multiplicator calculated according to centroid type and
1514:.\Generated_Source\PSoC4/CapSense_CSD_CSHL.c ****     *  API resolution.
1515:.\Generated_Source\PSoC4/CapSense_CSD_CSHL.c ****     *  noiseThreshold:  Noise threshold.
1516:.\Generated_Source\PSoC4/CapSense_CSD_CSHL.c ****     * 
1517:.\Generated_Source\PSoC4/CapSense_CSD_CSHL.c ****     * Return:
1518:.\Generated_Source\PSoC4/CapSense_CSD_CSHL.c ****     *  Returns a position value of the slider.
1519:.\Generated_Source\PSoC4/CapSense_CSD_CSHL.c **** 	*
1520:.\Generated_Source\PSoC4/CapSense_CSD_CSHL.c **** 	* Side Effects: 
1521:.\Generated_Source\PSoC4/CapSense_CSD_CSHL.c **** 	*  None
1522:.\Generated_Source\PSoC4/CapSense_CSD_CSHL.c **** 	* 
1523:.\Generated_Source\PSoC4/CapSense_CSD_CSHL.c ****     *******************************************************************************/
1524:.\Generated_Source\PSoC4/CapSense_CSD_CSHL.c **** #if (CapSense_CSD_TOTAL_TRACKPAD_GESTURES_COUNT > 0u)
1525:.\Generated_Source\PSoC4/CapSense_CSD_CSHL.c ****     uint8 CapSense_CSD_CalcCentroid(uint8 maximum, uint8 offset, 
1526:.\Generated_Source\PSoC4/CapSense_CSD_CSHL.c ****                                         uint8 count, uint32 resolution, uint16 noiseThreshold)
1527:.\Generated_Source\PSoC4/CapSense_CSD_CSHL.c **** #else								
1528:.\Generated_Source\PSoC4/CapSense_CSD_CSHL.c ****     uint8 CapSense_CSD_CalcCentroid(uint8 maximum, uint8 offset, 
1529:.\Generated_Source\PSoC4/CapSense_CSD_CSHL.c ****                                         uint8 count, uint16 resolution, uint16 noiseThreshold)					
1530:.\Generated_Source\PSoC4/CapSense_CSD_CSHL.c **** #endif /* (CapSense_CSD_TOTAL_TRACKPAD_GESTURES_COUNT > 0u) */
1531:.\Generated_Source\PSoC4/CapSense_CSD_CSHL.c ****     {
1532:.\Generated_Source\PSoC4/CapSense_CSD_CSHL.c ****         #if ((CapSense_CSD_TOTAL_LINEAR_SLIDERS_COUNT > 0u) || (CapSense_CSD_TOTAL_TOUCH_PADS_BASIC
1533:.\Generated_Source\PSoC4/CapSense_CSD_CSHL.c ****             uint8 posPrev;
1534:.\Generated_Source\PSoC4/CapSense_CSD_CSHL.c ****             uint8 posNext;
1535:.\Generated_Source\PSoC4/CapSense_CSD_CSHL.c ****         #endif /* ((CapSense_CSD_TOTAL_LINEAR_SLIDERS_COUNT>0u) || (CapSense_CSD_TOTAL_TOUCH_PADS_B
1536:.\Generated_Source\PSoC4/CapSense_CSD_CSHL.c ****         
1537:.\Generated_Source\PSoC4/CapSense_CSD_CSHL.c ****         /* Helps during centroid calculation */
1538:.\Generated_Source\PSoC4/CapSense_CSD_CSHL.c ****         #if (CapSense_CSD_TOTAL_CENTROIDS_BASIC_COUNT)
1539:.\Generated_Source\PSoC4/CapSense_CSD_CSHL.c **** 		    static uint16 CapSense_CSD_centroid[3u];
1540:.\Generated_Source\PSoC4/CapSense_CSD_CSHL.c ****         #endif  /* (CapSense_CSD_TOTAL_CENTROIDS_BASIC_COUNT) */
1541:.\Generated_Source\PSoC4/CapSense_CSD_CSHL.c ****                
1542:.\Generated_Source\PSoC4/CapSense_CSD_CSHL.c ****         #if (CapSense_CSD_IS_DIPLEX_SLIDER)                
1543:.\Generated_Source\PSoC4/CapSense_CSD_CSHL.c ****             uint8 pos;
1544:.\Generated_Source\PSoC4/CapSense_CSD_CSHL.c ****         #endif /* (CapSense_CSD_IS_DIPLEX_SLIDER) */
1545:.\Generated_Source\PSoC4/CapSense_CSD_CSHL.c **** 
1546:.\Generated_Source\PSoC4/CapSense_CSD_CSHL.c ****         uint8 position;
1547:.\Generated_Source\PSoC4/CapSense_CSD_CSHL.c ****         uint32 numerator;
1548:.\Generated_Source\PSoC4/CapSense_CSD_CSHL.c ****         int32 denominator;
1549:.\Generated_Source\PSoC4/CapSense_CSD_CSHL.c **** 		
ARM GAS  C:\Users\Sausy\AppData\Local\Temp\ccLQi9zI.s 			page 55


1550:.\Generated_Source\PSoC4/CapSense_CSD_CSHL.c **** 		uint16  *startOfSlider = &CapSense_CSD_sensorSignal[offset];
1551:.\Generated_Source\PSoC4/CapSense_CSD_CSHL.c **** 		
1552:.\Generated_Source\PSoC4/CapSense_CSD_CSHL.c ****         #if ((CapSense_CSD_TOTAL_LINEAR_SLIDERS_COUNT > 0u) || (CapSense_CSD_TOTAL_TOUCH_PADS_BASIC
1553:.\Generated_Source\PSoC4/CapSense_CSD_CSHL.c ****             posPrev = 0u;
1554:.\Generated_Source\PSoC4/CapSense_CSD_CSHL.c ****         #endif /* ((CapSense_CSD_TOTAL_LINEAR_SLIDERS_COUNT>0u) || (CapSense_CSD_TOTAL_TOUCH_PADS_B
1555:.\Generated_Source\PSoC4/CapSense_CSD_CSHL.c ****      
1556:.\Generated_Source\PSoC4/CapSense_CSD_CSHL.c ****         #if (CapSense_CSD_ADD_SLIDER_TYPE)
1557:.\Generated_Source\PSoC4/CapSense_CSD_CSHL.c ****             if(type == CapSense_CSD_TYPE_RADIAL_SLIDER)
1558:.\Generated_Source\PSoC4/CapSense_CSD_CSHL.c ****             {
1559:.\Generated_Source\PSoC4/CapSense_CSD_CSHL.c ****         #endif /* (CapSense_CSD_ADD_SLIDER_TYPE) */
1560:.\Generated_Source\PSoC4/CapSense_CSD_CSHL.c **** 
1561:.\Generated_Source\PSoC4/CapSense_CSD_CSHL.c ****             #if (CapSense_CSD_TOTAL_RADIAL_SLIDERS_COUNT > 0u)                
1562:.\Generated_Source\PSoC4/CapSense_CSD_CSHL.c ****                 /* Copy Signal to the centroid array */
1563:.\Generated_Source\PSoC4/CapSense_CSD_CSHL.c ****                 CapSense_CSD_centroid[CapSense_CSD_POS] = startOfSlider[maximum];
1564:.\Generated_Source\PSoC4/CapSense_CSD_CSHL.c ****                  
1565:.\Generated_Source\PSoC4/CapSense_CSD_CSHL.c ****                 /* Check borders for ROTARY Slider */
1566:.\Generated_Source\PSoC4/CapSense_CSD_CSHL.c ****                 if (maximum == 0u)                   /* Start of centroid */
1567:.\Generated_Source\PSoC4/CapSense_CSD_CSHL.c ****                 { 
1568:.\Generated_Source\PSoC4/CapSense_CSD_CSHL.c ****                     CapSense_CSD_centroid[CapSense_CSD_POS_PREV] = startOfSlider[count - 1u];
1569:.\Generated_Source\PSoC4/CapSense_CSD_CSHL.c ****                     CapSense_CSD_centroid[CapSense_CSD_POS_NEXT] = startOfSlider[1u];
1570:.\Generated_Source\PSoC4/CapSense_CSD_CSHL.c ****                 }
1571:.\Generated_Source\PSoC4/CapSense_CSD_CSHL.c ****                 else if (maximum == (count - 1u))    /* End of centroid */
1572:.\Generated_Source\PSoC4/CapSense_CSD_CSHL.c ****                 {
1573:.\Generated_Source\PSoC4/CapSense_CSD_CSHL.c ****                     CapSense_CSD_centroid[CapSense_CSD_POS_PREV] = startOfSlider[maximum - 1u];
1574:.\Generated_Source\PSoC4/CapSense_CSD_CSHL.c ****                     CapSense_CSD_centroid[CapSense_CSD_POS_NEXT] = startOfSlider[0u];
1575:.\Generated_Source\PSoC4/CapSense_CSD_CSHL.c ****                 }
1576:.\Generated_Source\PSoC4/CapSense_CSD_CSHL.c ****                 else                                /* Not first Not last */
1577:.\Generated_Source\PSoC4/CapSense_CSD_CSHL.c ****                 {
1578:.\Generated_Source\PSoC4/CapSense_CSD_CSHL.c ****                     CapSense_CSD_centroid[CapSense_CSD_POS_PREV] = startOfSlider[maximum - 1u];
1579:.\Generated_Source\PSoC4/CapSense_CSD_CSHL.c ****                     CapSense_CSD_centroid[CapSense_CSD_POS_NEXT] = startOfSlider[maximum + 1u];
1580:.\Generated_Source\PSoC4/CapSense_CSD_CSHL.c ****                 }
1581:.\Generated_Source\PSoC4/CapSense_CSD_CSHL.c ****             #endif /* (CapSense_CSD_TOTAL_RADIAL_SLIDERS_COUNT > 0u) */
1582:.\Generated_Source\PSoC4/CapSense_CSD_CSHL.c **** 
1583:.\Generated_Source\PSoC4/CapSense_CSD_CSHL.c ****         #if (CapSense_CSD_ADD_SLIDER_TYPE)
1584:.\Generated_Source\PSoC4/CapSense_CSD_CSHL.c ****             }
1585:.\Generated_Source\PSoC4/CapSense_CSD_CSHL.c ****             else
1586:.\Generated_Source\PSoC4/CapSense_CSD_CSHL.c ****             {
1587:.\Generated_Source\PSoC4/CapSense_CSD_CSHL.c ****         #endif /* (CapSense_CSD_ADD_SLIDER_TYPE) */
1588:.\Generated_Source\PSoC4/CapSense_CSD_CSHL.c **** 
1589:.\Generated_Source\PSoC4/CapSense_CSD_CSHL.c ****             #if ((CapSense_CSD_TOTAL_LINEAR_SLIDERS_COUNT > 0u) || (CapSense_CSD_TOTAL_TOUCH_PADS_B
1590:.\Generated_Source\PSoC4/CapSense_CSD_CSHL.c ****                 #if (CapSense_CSD_IS_DIPLEX_SLIDER && CapSense_CSD_IS_NON_DIPLEX_SLIDER)           
1591:.\Generated_Source\PSoC4/CapSense_CSD_CSHL.c ****                     /* Calculate next and previous near to maximum */
1592:.\Generated_Source\PSoC4/CapSense_CSD_CSHL.c ****                     if(diplex == 0u)
1593:.\Generated_Source\PSoC4/CapSense_CSD_CSHL.c ****                     {
1594:.\Generated_Source\PSoC4/CapSense_CSD_CSHL.c ****                         pos     = maximum;
1595:.\Generated_Source\PSoC4/CapSense_CSD_CSHL.c ****                         posPrev = maximum - 1u;
1596:.\Generated_Source\PSoC4/CapSense_CSD_CSHL.c ****                         posNext = maximum + 1u; 
1597:.\Generated_Source\PSoC4/CapSense_CSD_CSHL.c ****                     }
1598:.\Generated_Source\PSoC4/CapSense_CSD_CSHL.c ****                     else
1599:.\Generated_Source\PSoC4/CapSense_CSD_CSHL.c ****                     {
1600:.\Generated_Source\PSoC4/CapSense_CSD_CSHL.c ****                         pos     = diplex[maximum];
1601:.\Generated_Source\PSoC4/CapSense_CSD_CSHL.c ****                         posPrev = diplex[maximum - 1u];
1602:.\Generated_Source\PSoC4/CapSense_CSD_CSHL.c ****                         posNext = diplex[maximum + 1u];
1603:.\Generated_Source\PSoC4/CapSense_CSD_CSHL.c ****                         count <<= 1u;
1604:.\Generated_Source\PSoC4/CapSense_CSD_CSHL.c ****                     }                    
1605:.\Generated_Source\PSoC4/CapSense_CSD_CSHL.c ****                 #elif (CapSense_CSD_IS_DIPLEX_SLIDER)
1606:.\Generated_Source\PSoC4/CapSense_CSD_CSHL.c ****                     /* Calculate next and previous near to maximum */
ARM GAS  C:\Users\Sausy\AppData\Local\Temp\ccLQi9zI.s 			page 56


1607:.\Generated_Source\PSoC4/CapSense_CSD_CSHL.c ****                     pos     = diplex[maximum];
1608:.\Generated_Source\PSoC4/CapSense_CSD_CSHL.c ****                     posPrev = diplex[maximum - 1u];
1609:.\Generated_Source\PSoC4/CapSense_CSD_CSHL.c ****                     posNext = diplex[maximum + 1u];
1610:.\Generated_Source\PSoC4/CapSense_CSD_CSHL.c ****                     count <<= 1u;                    
1611:.\Generated_Source\PSoC4/CapSense_CSD_CSHL.c ****                 #else                    
1612:.\Generated_Source\PSoC4/CapSense_CSD_CSHL.c ****                     /* Calculate next and previous near to maximum */
1613:.\Generated_Source\PSoC4/CapSense_CSD_CSHL.c ****                     if (maximum >= 1u)
1614:.\Generated_Source\PSoC4/CapSense_CSD_CSHL.c ****                     {
1615:.\Generated_Source\PSoC4/CapSense_CSD_CSHL.c ****                         posPrev = maximum - 1u;
1616:.\Generated_Source\PSoC4/CapSense_CSD_CSHL.c ****                     }
1617:.\Generated_Source\PSoC4/CapSense_CSD_CSHL.c ****                     posNext = maximum + 1u;
1618:.\Generated_Source\PSoC4/CapSense_CSD_CSHL.c ****                 #endif /* (CapSense_CSD_IS_DIPLEX_SLIDER && CapSense_CSD_IS_NON_DIPLEX_SLIDER) */
1619:.\Generated_Source\PSoC4/CapSense_CSD_CSHL.c ****                         
1620:.\Generated_Source\PSoC4/CapSense_CSD_CSHL.c ****                 /* Copy Signal to the centroid array */
1621:.\Generated_Source\PSoC4/CapSense_CSD_CSHL.c ****                 #if (CapSense_CSD_IS_DIPLEX_SLIDER)
1622:.\Generated_Source\PSoC4/CapSense_CSD_CSHL.c ****                     CapSense_CSD_centroid[CapSense_CSD_POS] = startOfSlider[pos];
1623:.\Generated_Source\PSoC4/CapSense_CSD_CSHL.c ****                 #else
1624:.\Generated_Source\PSoC4/CapSense_CSD_CSHL.c ****                     CapSense_CSD_centroid[CapSense_CSD_POS] = startOfSlider[maximum];
1625:.\Generated_Source\PSoC4/CapSense_CSD_CSHL.c ****                 #endif /* (CapSense_CSD_IS_DIPLEX_SLIDER) */
1626:.\Generated_Source\PSoC4/CapSense_CSD_CSHL.c ****                     
1627:.\Generated_Source\PSoC4/CapSense_CSD_CSHL.c ****                 /* Check borders for LINEAR Slider */
1628:.\Generated_Source\PSoC4/CapSense_CSD_CSHL.c ****                 if (maximum == 0u)                   /* Start of centroid */
1629:.\Generated_Source\PSoC4/CapSense_CSD_CSHL.c ****                 { 
1630:.\Generated_Source\PSoC4/CapSense_CSD_CSHL.c ****                     CapSense_CSD_centroid[CapSense_CSD_POS_PREV] = 0u;
1631:.\Generated_Source\PSoC4/CapSense_CSD_CSHL.c ****                     CapSense_CSD_centroid[CapSense_CSD_POS_NEXT] = startOfSlider[posNext];
1632:.\Generated_Source\PSoC4/CapSense_CSD_CSHL.c ****                 }
1633:.\Generated_Source\PSoC4/CapSense_CSD_CSHL.c ****                 else if (maximum == ((count) - 1u)) /* End of centroid */
1634:.\Generated_Source\PSoC4/CapSense_CSD_CSHL.c ****                 {
1635:.\Generated_Source\PSoC4/CapSense_CSD_CSHL.c ****                     CapSense_CSD_centroid[CapSense_CSD_POS_PREV] = startOfSlider[posPrev];
1636:.\Generated_Source\PSoC4/CapSense_CSD_CSHL.c ****                     CapSense_CSD_centroid[CapSense_CSD_POS_NEXT] = 0u;
1637:.\Generated_Source\PSoC4/CapSense_CSD_CSHL.c ****                 }
1638:.\Generated_Source\PSoC4/CapSense_CSD_CSHL.c ****                 else                                /* Not first Not last */
1639:.\Generated_Source\PSoC4/CapSense_CSD_CSHL.c ****                 {
1640:.\Generated_Source\PSoC4/CapSense_CSD_CSHL.c ****                     CapSense_CSD_centroid[CapSense_CSD_POS_PREV] = startOfSlider[posPrev];
1641:.\Generated_Source\PSoC4/CapSense_CSD_CSHL.c ****                     CapSense_CSD_centroid[CapSense_CSD_POS_NEXT] = startOfSlider[posNext];
1642:.\Generated_Source\PSoC4/CapSense_CSD_CSHL.c ****                 }
1643:.\Generated_Source\PSoC4/CapSense_CSD_CSHL.c ****             #endif /* ((CapSense_CSD_TOTAL_LINEAR_SLIDERS_COUNT>0u)||(CapSense_CSD_TOTAL_TOUCH_PADS
1644:.\Generated_Source\PSoC4/CapSense_CSD_CSHL.c **** 
1645:.\Generated_Source\PSoC4/CapSense_CSD_CSHL.c ****         #if (CapSense_CSD_ADD_SLIDER_TYPE)
1646:.\Generated_Source\PSoC4/CapSense_CSD_CSHL.c ****             }
1647:.\Generated_Source\PSoC4/CapSense_CSD_CSHL.c ****         #endif /* (CapSense_CSD_ADD_SLIDER_TYPE) */
1648:.\Generated_Source\PSoC4/CapSense_CSD_CSHL.c ****     
1649:.\Generated_Source\PSoC4/CapSense_CSD_CSHL.c ****         /* Subtract noiseThreshold */
1650:.\Generated_Source\PSoC4/CapSense_CSD_CSHL.c ****         if(CapSense_CSD_centroid[CapSense_CSD_POS_PREV] > noiseThreshold)
1651:.\Generated_Source\PSoC4/CapSense_CSD_CSHL.c ****         {
1652:.\Generated_Source\PSoC4/CapSense_CSD_CSHL.c ****             CapSense_CSD_centroid[CapSense_CSD_POS_PREV] -= noiseThreshold;
1653:.\Generated_Source\PSoC4/CapSense_CSD_CSHL.c ****         }
1654:.\Generated_Source\PSoC4/CapSense_CSD_CSHL.c ****         else
1655:.\Generated_Source\PSoC4/CapSense_CSD_CSHL.c ****         {
1656:.\Generated_Source\PSoC4/CapSense_CSD_CSHL.c ****             CapSense_CSD_centroid[CapSense_CSD_POS_PREV] = 0u;
1657:.\Generated_Source\PSoC4/CapSense_CSD_CSHL.c ****         }
1658:.\Generated_Source\PSoC4/CapSense_CSD_CSHL.c ****         
1659:.\Generated_Source\PSoC4/CapSense_CSD_CSHL.c ****         /* Maximum always greater than fingerThreshold, so greater than noiseThreshold */
1660:.\Generated_Source\PSoC4/CapSense_CSD_CSHL.c ****         CapSense_CSD_centroid[CapSense_CSD_POS] -= noiseThreshold;
1661:.\Generated_Source\PSoC4/CapSense_CSD_CSHL.c ****         
1662:.\Generated_Source\PSoC4/CapSense_CSD_CSHL.c ****         /* Subtract noiseThreshold */
1663:.\Generated_Source\PSoC4/CapSense_CSD_CSHL.c ****         if(CapSense_CSD_centroid[CapSense_CSD_POS_NEXT] > noiseThreshold)
ARM GAS  C:\Users\Sausy\AppData\Local\Temp\ccLQi9zI.s 			page 57


1664:.\Generated_Source\PSoC4/CapSense_CSD_CSHL.c ****         {
1665:.\Generated_Source\PSoC4/CapSense_CSD_CSHL.c ****             CapSense_CSD_centroid[CapSense_CSD_POS_NEXT] -= noiseThreshold;
1666:.\Generated_Source\PSoC4/CapSense_CSD_CSHL.c ****         }
1667:.\Generated_Source\PSoC4/CapSense_CSD_CSHL.c ****         else
1668:.\Generated_Source\PSoC4/CapSense_CSD_CSHL.c ****         {
1669:.\Generated_Source\PSoC4/CapSense_CSD_CSHL.c ****             CapSense_CSD_centroid[CapSense_CSD_POS_NEXT] = 0u;
1670:.\Generated_Source\PSoC4/CapSense_CSD_CSHL.c ****         }
1671:.\Generated_Source\PSoC4/CapSense_CSD_CSHL.c ****         
1672:.\Generated_Source\PSoC4/CapSense_CSD_CSHL.c ****         
1673:.\Generated_Source\PSoC4/CapSense_CSD_CSHL.c ****         /* Si+1 - Si-1 */
1674:.\Generated_Source\PSoC4/CapSense_CSD_CSHL.c ****         numerator = (uint32) CapSense_CSD_centroid[CapSense_CSD_POS_NEXT] -
1675:.\Generated_Source\PSoC4/CapSense_CSD_CSHL.c ****                     (uint32) CapSense_CSD_centroid[CapSense_CSD_POS_PREV];
1676:.\Generated_Source\PSoC4/CapSense_CSD_CSHL.c **** 
1677:.\Generated_Source\PSoC4/CapSense_CSD_CSHL.c ****         /* Si+1 + Si + Si-1 */
1678:.\Generated_Source\PSoC4/CapSense_CSD_CSHL.c ****         denominator = (int32) CapSense_CSD_centroid[CapSense_CSD_POS_PREV] + 
1679:.\Generated_Source\PSoC4/CapSense_CSD_CSHL.c ****                       (int32) CapSense_CSD_centroid[CapSense_CSD_POS] + 
1680:.\Generated_Source\PSoC4/CapSense_CSD_CSHL.c ****                       (int32) CapSense_CSD_centroid[CapSense_CSD_POS_NEXT];
1681:.\Generated_Source\PSoC4/CapSense_CSD_CSHL.c ****         
1682:.\Generated_Source\PSoC4/CapSense_CSD_CSHL.c ****         /* (numerator/denominator) + maximum */
1683:.\Generated_Source\PSoC4/CapSense_CSD_CSHL.c ****         denominator = (((int32)(uint32)((uint32)numerator << 8u)/denominator) + (int32)(uint32)((ui
1684:.\Generated_Source\PSoC4/CapSense_CSD_CSHL.c **** 
1685:.\Generated_Source\PSoC4/CapSense_CSD_CSHL.c ****         #if(CapSense_CSD_TOTAL_RADIAL_SLIDERS_COUNT > 0u)
1686:.\Generated_Source\PSoC4/CapSense_CSD_CSHL.c ****             /* Only required for RADIAL Slider */
1687:.\Generated_Source\PSoC4/CapSense_CSD_CSHL.c ****             if(denominator < 0)
1688:.\Generated_Source\PSoC4/CapSense_CSD_CSHL.c ****             {
1689:.\Generated_Source\PSoC4/CapSense_CSD_CSHL.c ****                 denominator += (int32)((uint16)((uint16) count << 8u));
1690:.\Generated_Source\PSoC4/CapSense_CSD_CSHL.c ****             }
1691:.\Generated_Source\PSoC4/CapSense_CSD_CSHL.c ****         #endif /* (CapSense_CSD_TOTAL_RADIAL_SLIDERS_COUNT > 0u) */
1692:.\Generated_Source\PSoC4/CapSense_CSD_CSHL.c ****         
1693:.\Generated_Source\PSoC4/CapSense_CSD_CSHL.c ****         denominator *= (int16)resolution;
1694:.\Generated_Source\PSoC4/CapSense_CSD_CSHL.c ****         
1695:.\Generated_Source\PSoC4/CapSense_CSD_CSHL.c ****         /* Round result and put it to uint8 */
1696:.\Generated_Source\PSoC4/CapSense_CSD_CSHL.c ****         position = ((uint8) HI16((uint32)denominator + CapSense_CSD_CENTROID_ROUND_VALUE));
1697:.\Generated_Source\PSoC4/CapSense_CSD_CSHL.c **** 
1698:.\Generated_Source\PSoC4/CapSense_CSD_CSHL.c ****         return (position);
1699:.\Generated_Source\PSoC4/CapSense_CSD_CSHL.c ****     }    
1700:.\Generated_Source\PSoC4/CapSense_CSD_CSHL.c **** #endif /* (CapSense_CSD_TOTAL_CENTROIDS_BASIC_COUNT) */
1701:.\Generated_Source\PSoC4/CapSense_CSD_CSHL.c **** 
1702:.\Generated_Source\PSoC4/CapSense_CSD_CSHL.c **** 
1703:.\Generated_Source\PSoC4/CapSense_CSD_CSHL.c **** #if((CapSense_CSD_TOTAL_RADIAL_SLIDERS_COUNT > 0u) || (CapSense_CSD_TOTAL_LINEAR_SLIDERS_COUNT > 0u
1704:.\Generated_Source\PSoC4/CapSense_CSD_CSHL.c ****     /*******************************************************************************
1705:.\Generated_Source\PSoC4/CapSense_CSD_CSHL.c ****     * Function Name: CapSense_CSD_GetCentroidPos
1706:.\Generated_Source\PSoC4/CapSense_CSD_CSHL.c ****     ********************************************************************************
1707:.\Generated_Source\PSoC4/CapSense_CSD_CSHL.c ****     *
1708:.\Generated_Source\PSoC4/CapSense_CSD_CSHL.c ****     * Summary:
1709:.\Generated_Source\PSoC4/CapSense_CSD_CSHL.c ****     *  Checks the CapSense_CSD_Signal[ ] array for a centroid within
1710:.\Generated_Source\PSoC4/CapSense_CSD_CSHL.c ****     *  a slider specified range. The centroid position is calculated according to the resolution
1711:.\Generated_Source\PSoC4/CapSense_CSD_CSHL.c ****     *  specified in the CapSense customizer. The position filters are applied to the
1712:.\Generated_Source\PSoC4/CapSense_CSD_CSHL.c ****     *  result if enabled.
1713:.\Generated_Source\PSoC4/CapSense_CSD_CSHL.c ****     *
1714:.\Generated_Source\PSoC4/CapSense_CSD_CSHL.c ****     * Parameters:
1715:.\Generated_Source\PSoC4/CapSense_CSD_CSHL.c ****     *  widget:  Widget number.
1716:.\Generated_Source\PSoC4/CapSense_CSD_CSHL.c ****     *  For every linear slider widget there are defines in this format:
1717:.\Generated_Source\PSoC4/CapSense_CSD_CSHL.c ****     *  #define CapSense_CSD_"widget_name"__LS           5
1718:.\Generated_Source\PSoC4/CapSense_CSD_CSHL.c ****     * 
1719:.\Generated_Source\PSoC4/CapSense_CSD_CSHL.c ****     * Return:
1720:.\Generated_Source\PSoC4/CapSense_CSD_CSHL.c ****     *  Returns a position value of the linear slider.
ARM GAS  C:\Users\Sausy\AppData\Local\Temp\ccLQi9zI.s 			page 58


1721:.\Generated_Source\PSoC4/CapSense_CSD_CSHL.c **** 	*
1722:.\Generated_Source\PSoC4/CapSense_CSD_CSHL.c **** 	* Global Variables:
1723:.\Generated_Source\PSoC4/CapSense_CSD_CSHL.c **** 	*  None
1724:.\Generated_Source\PSoC4/CapSense_CSD_CSHL.c **** 	*
1725:.\Generated_Source\PSoC4/CapSense_CSD_CSHL.c ****     * Side Effects:
1726:.\Generated_Source\PSoC4/CapSense_CSD_CSHL.c ****     *  If any sensor within the slider widget is active, the function returns values
1727:.\Generated_Source\PSoC4/CapSense_CSD_CSHL.c ****     *  from zero to the API resolution value set in the CapSense customizer. If no
1728:.\Generated_Source\PSoC4/CapSense_CSD_CSHL.c ****     *  sensors are active, the function returns 0xFFFF. If an error occurs during
1729:.\Generated_Source\PSoC4/CapSense_CSD_CSHL.c ****     *  execution of the centroid/diplexing algorithm, the function returns 0xFFFF.
1730:.\Generated_Source\PSoC4/CapSense_CSD_CSHL.c ****     *  There are no checks of the widget type argument provided to this function.
1731:.\Generated_Source\PSoC4/CapSense_CSD_CSHL.c ****     *  The unproper widget type provided will cause unexpected position calculations.
1732:.\Generated_Source\PSoC4/CapSense_CSD_CSHL.c ****     *
1733:.\Generated_Source\PSoC4/CapSense_CSD_CSHL.c ****     * Note:
1734:.\Generated_Source\PSoC4/CapSense_CSD_CSHL.c ****     *  If noise counts on the slider segments are greater than the noise
1735:.\Generated_Source\PSoC4/CapSense_CSD_CSHL.c ****     *  threshold, this subroutine may generate a false centroid result. The noise
1736:.\Generated_Source\PSoC4/CapSense_CSD_CSHL.c ****     *  threshold should be set carefully (high enough above the noise level) so
1737:.\Generated_Source\PSoC4/CapSense_CSD_CSHL.c ****     *  that noise will not generate a false centroid.
1738:.\Generated_Source\PSoC4/CapSense_CSD_CSHL.c ****     *******************************************************************************/
1739:.\Generated_Source\PSoC4/CapSense_CSD_CSHL.c ****     uint16 CapSense_CSD_GetCentroidPos(uint32 widget)
1740:.\Generated_Source\PSoC4/CapSense_CSD_CSHL.c ****     {
1741:.\Generated_Source\PSoC4/CapSense_CSD_CSHL.c ****         #if (CapSense_CSD_IS_DIPLEX_SLIDER)
1742:.\Generated_Source\PSoC4/CapSense_CSD_CSHL.c ****             const uint8 *diplex;
1743:.\Generated_Source\PSoC4/CapSense_CSD_CSHL.c ****         #endif /* (CapSense_CSD_IS_DIPLEX_SLIDER) */
1744:.\Generated_Source\PSoC4/CapSense_CSD_CSHL.c ****                 
1745:.\Generated_Source\PSoC4/CapSense_CSD_CSHL.c ****         #if (0u != CapSense_CSD_LINEAR_SLIDERS_POS_FILTERS_MASK)
1746:.\Generated_Source\PSoC4/CapSense_CSD_CSHL.c ****             uint8 posIndex;
1747:.\Generated_Source\PSoC4/CapSense_CSD_CSHL.c ****             uint8 firstTimeIndex = CapSense_CSD_posFiltersData[widget];
1748:.\Generated_Source\PSoC4/CapSense_CSD_CSHL.c ****             uint8 posFiltersMask = CapSense_CSD_posFiltersMask[widget];  
1749:.\Generated_Source\PSoC4/CapSense_CSD_CSHL.c ****         #endif /* (0u != CapSense_CSD_LINEAR_SLIDERS_POS_FILTERS_MASK) */
1750:.\Generated_Source\PSoC4/CapSense_CSD_CSHL.c **** 
1751:.\Generated_Source\PSoC4/CapSense_CSD_CSHL.c ****         #if ((0u != (CapSense_CSD_MEDIAN_FILTER & CapSense_CSD_LINEAR_SLIDERS_POS_FILTERS_MASK)) ||
1752:.\Generated_Source\PSoC4/CapSense_CSD_CSHL.c ****              (0u != (CapSense_CSD_AVERAGING_FILTER & CapSense_CSD_LINEAR_SLIDERS_POS_FILTERS_MASK))
1753:.\Generated_Source\PSoC4/CapSense_CSD_CSHL.c ****             uint8 tempPos;
1754:.\Generated_Source\PSoC4/CapSense_CSD_CSHL.c ****         #endif /* ((0u != (CapSense_CSD_MEDIAN_FILTER & CapSense_CSD_LINEAR_SLIDERS_POS_FILTERS_MAS
1755:.\Generated_Source\PSoC4/CapSense_CSD_CSHL.c ****                *   (0u != (CapSense_CSD_AVERAGING_FILTER & CapSense_CSD_LINEAR_SLIDERS_POS_FILTERS_
1756:.\Generated_Source\PSoC4/CapSense_CSD_CSHL.c ****                */
1757:.\Generated_Source\PSoC4/CapSense_CSD_CSHL.c **** 
1758:.\Generated_Source\PSoC4/CapSense_CSD_CSHL.c ****         uint8 maximum;
1759:.\Generated_Source\PSoC4/CapSense_CSD_CSHL.c ****         uint16 position;
1760:.\Generated_Source\PSoC4/CapSense_CSD_CSHL.c ****         uint8 offset = CapSense_CSD_rawDataIndex[widget];
1761:.\Generated_Source\PSoC4/CapSense_CSD_CSHL.c ****         uint8 count = CapSense_CSD_numberOfSensors[widget];
1762:.\Generated_Source\PSoC4/CapSense_CSD_CSHL.c ****                         
1763:.\Generated_Source\PSoC4/CapSense_CSD_CSHL.c ****         #if (CapSense_CSD_IS_DIPLEX_SLIDER)
1764:.\Generated_Source\PSoC4/CapSense_CSD_CSHL.c ****             if(widget < CapSense_CSD_TOTAL_DIPLEXED_SLIDERS_COUNT)
1765:.\Generated_Source\PSoC4/CapSense_CSD_CSHL.c ****             {
1766:.\Generated_Source\PSoC4/CapSense_CSD_CSHL.c ****                 maximum = CapSense_CSD_diplexTable[widget];
1767:.\Generated_Source\PSoC4/CapSense_CSD_CSHL.c ****                 diplex = &CapSense_CSD_diplexTable[maximum];
1768:.\Generated_Source\PSoC4/CapSense_CSD_CSHL.c ****             }
1769:.\Generated_Source\PSoC4/CapSense_CSD_CSHL.c ****             else
1770:.\Generated_Source\PSoC4/CapSense_CSD_CSHL.c ****             {
1771:.\Generated_Source\PSoC4/CapSense_CSD_CSHL.c ****                 diplex = 0u;
1772:.\Generated_Source\PSoC4/CapSense_CSD_CSHL.c ****             }
1773:.\Generated_Source\PSoC4/CapSense_CSD_CSHL.c ****         #endif /* (CapSense_CSD_IS_DIPLEX_SLIDER) */
1774:.\Generated_Source\PSoC4/CapSense_CSD_CSHL.c **** 
1775:.\Generated_Source\PSoC4/CapSense_CSD_CSHL.c **** 		/* Find Maximum within centroid */      
1776:.\Generated_Source\PSoC4/CapSense_CSD_CSHL.c **** 		#if (CapSense_CSD_IS_DIPLEX_SLIDER)        
1777:.\Generated_Source\PSoC4/CapSense_CSD_CSHL.c **** 			maximum = CapSense_CSD_FindMaximum(offset, count, (uint16)CapSense_CSD_fingerThreshold[widget], 
ARM GAS  C:\Users\Sausy\AppData\Local\Temp\ccLQi9zI.s 			page 59


1778:.\Generated_Source\PSoC4/CapSense_CSD_CSHL.c **** 		#else
1779:.\Generated_Source\PSoC4/CapSense_CSD_CSHL.c **** 			maximum = CapSense_CSD_FindMaximum(offset, count, (uint16)CapSense_CSD_fingerThreshold[widget]);
1780:.\Generated_Source\PSoC4/CapSense_CSD_CSHL.c **** 		#endif /* (CapSense_CSD_IS_DIPLEX_SLIDER) */
1781:.\Generated_Source\PSoC4/CapSense_CSD_CSHL.c **** 
1782:.\Generated_Source\PSoC4/CapSense_CSD_CSHL.c ****         if (maximum != 0xFFu)
1783:.\Generated_Source\PSoC4/CapSense_CSD_CSHL.c ****         {
1784:.\Generated_Source\PSoC4/CapSense_CSD_CSHL.c ****             /* Calculate centroid */
1785:.\Generated_Source\PSoC4/CapSense_CSD_CSHL.c ****             position = (uint16) CapSense_CSD_CalcCentroid(maximum, 
1786:.\Generated_Source\PSoC4/CapSense_CSD_CSHL.c ****                          offset, count, CapSense_CSD_centroidMult[widget], CapSense_CSD_noiseThresh
1787:.\Generated_Source\PSoC4/CapSense_CSD_CSHL.c **** 
1788:.\Generated_Source\PSoC4/CapSense_CSD_CSHL.c ****             #if (0u != CapSense_CSD_LINEAR_SLIDERS_POS_FILTERS_MASK)
1789:.\Generated_Source\PSoC4/CapSense_CSD_CSHL.c ****                 /* Check if this linear slider has enabled filters */
1790:.\Generated_Source\PSoC4/CapSense_CSD_CSHL.c ****                 if (0u != (posFiltersMask & CapSense_CSD_ANY_POS_FILTER))
1791:.\Generated_Source\PSoC4/CapSense_CSD_CSHL.c ****                 {
1792:.\Generated_Source\PSoC4/CapSense_CSD_CSHL.c ****                     /* Calculate position to store filters data */
1793:.\Generated_Source\PSoC4/CapSense_CSD_CSHL.c ****                     posIndex  = firstTimeIndex + 1u;
1794:.\Generated_Source\PSoC4/CapSense_CSD_CSHL.c ****                     
1795:.\Generated_Source\PSoC4/CapSense_CSD_CSHL.c ****                     if (0u == CapSense_CSD_posFiltersData[firstTimeIndex])
1796:.\Generated_Source\PSoC4/CapSense_CSD_CSHL.c ****                     {
1797:.\Generated_Source\PSoC4/CapSense_CSD_CSHL.c ****                         /* Init filters */
1798:.\Generated_Source\PSoC4/CapSense_CSD_CSHL.c ****                         CapSense_CSD_posFiltersData[posIndex] = (uint8) position;
1799:.\Generated_Source\PSoC4/CapSense_CSD_CSHL.c ****                         #if ((0u != (CapSense_CSD_MEDIAN_FILTER & \
1800:.\Generated_Source\PSoC4/CapSense_CSD_CSHL.c ****                                      CapSense_CSD_LINEAR_SLIDERS_POS_FILTERS_MASK)) || \
1801:.\Generated_Source\PSoC4/CapSense_CSD_CSHL.c ****                              (0u != (CapSense_CSD_AVERAGING_FILTER & \
1802:.\Generated_Source\PSoC4/CapSense_CSD_CSHL.c ****                                      CapSense_CSD_LINEAR_SLIDERS_POS_FILTERS_MASK)))
1803:.\Generated_Source\PSoC4/CapSense_CSD_CSHL.c **** 
1804:.\Generated_Source\PSoC4/CapSense_CSD_CSHL.c ****                             if ( (0u != (posFiltersMask & CapSense_CSD_MEDIAN_FILTER)) || 
1805:.\Generated_Source\PSoC4/CapSense_CSD_CSHL.c ****                                  (0u != (posFiltersMask & CapSense_CSD_AVERAGING_FILTER)) )
1806:.\Generated_Source\PSoC4/CapSense_CSD_CSHL.c ****                             {
1807:.\Generated_Source\PSoC4/CapSense_CSD_CSHL.c ****                                 CapSense_CSD_posFiltersData[posIndex + 1u] = (uint8) position;
1808:.\Generated_Source\PSoC4/CapSense_CSD_CSHL.c ****                             }
1809:.\Generated_Source\PSoC4/CapSense_CSD_CSHL.c ****                         #endif /* ((0u != (CapSense_CSD_MEDIAN_FILTER & \
1810:.\Generated_Source\PSoC4/CapSense_CSD_CSHL.c ****                                *           CapSense_CSD_LINEAR_SLIDERS_POS_FILTERS_MASK)) || \
1811:.\Generated_Source\PSoC4/CapSense_CSD_CSHL.c ****                                *   (0u != (CapSense_CSD_AVERAGING_FILTER & \
1812:.\Generated_Source\PSoC4/CapSense_CSD_CSHL.c ****                                *           CapSense_CSD_LINEAR_SLIDERS_POS_FILTERS_MASK)))
1813:.\Generated_Source\PSoC4/CapSense_CSD_CSHL.c ****                                */
1814:.\Generated_Source\PSoC4/CapSense_CSD_CSHL.c ****                         
1815:.\Generated_Source\PSoC4/CapSense_CSD_CSHL.c ****                         CapSense_CSD_posFiltersData[firstTimeIndex] = 1u;
1816:.\Generated_Source\PSoC4/CapSense_CSD_CSHL.c ****                     }
1817:.\Generated_Source\PSoC4/CapSense_CSD_CSHL.c ****                     else
1818:.\Generated_Source\PSoC4/CapSense_CSD_CSHL.c ****                     {
1819:.\Generated_Source\PSoC4/CapSense_CSD_CSHL.c ****                         /* Do filtering */
1820:.\Generated_Source\PSoC4/CapSense_CSD_CSHL.c ****                         #if (0u != (CapSense_CSD_MEDIAN_FILTER & CapSense_CSD_LINEAR_SLIDERS_POS_FI
1821:.\Generated_Source\PSoC4/CapSense_CSD_CSHL.c ****                             if (0u != (posFiltersMask & CapSense_CSD_MEDIAN_FILTER))
1822:.\Generated_Source\PSoC4/CapSense_CSD_CSHL.c ****                             {
1823:.\Generated_Source\PSoC4/CapSense_CSD_CSHL.c ****                                 tempPos = (uint8) position;
1824:.\Generated_Source\PSoC4/CapSense_CSD_CSHL.c ****                                 position = CapSense_CSD_MedianFilter(position,
1825:.\Generated_Source\PSoC4/CapSense_CSD_CSHL.c ****                                                                 (uint16)CapSense_CSD_posFiltersData
1826:.\Generated_Source\PSoC4/CapSense_CSD_CSHL.c ****                                                                 (uint16)CapSense_CSD_posFiltersData
1827:.\Generated_Source\PSoC4/CapSense_CSD_CSHL.c ****                                 CapSense_CSD_posFiltersData[posIndex + 1u] =
1828:.\Generated_Source\PSoC4/CapSense_CSD_CSHL.c ****                                                                              CapSense_CSD_posFilter
1829:.\Generated_Source\PSoC4/CapSense_CSD_CSHL.c ****                                 CapSense_CSD_posFiltersData[posIndex] = tempPos;
1830:.\Generated_Source\PSoC4/CapSense_CSD_CSHL.c ****                             }
1831:.\Generated_Source\PSoC4/CapSense_CSD_CSHL.c ****                         #endif /*(0u != (CapSense_CSD_MEDIAN_FILTER &
1832:.\Generated_Source\PSoC4/CapSense_CSD_CSHL.c ****                                *         CapSense_CSD_LINEAR_SLIDERS_POS_FILTERS_MASK))
1833:.\Generated_Source\PSoC4/CapSense_CSD_CSHL.c ****                                */
1834:.\Generated_Source\PSoC4/CapSense_CSD_CSHL.c **** 
ARM GAS  C:\Users\Sausy\AppData\Local\Temp\ccLQi9zI.s 			page 60


1835:.\Generated_Source\PSoC4/CapSense_CSD_CSHL.c ****                         #if(0u!=(CapSense_CSD_AVERAGING_FILTER & CapSense_CSD_LINEAR_SLIDERS_POS_FI
1836:.\Generated_Source\PSoC4/CapSense_CSD_CSHL.c ****                             if (0u != (posFiltersMask & CapSense_CSD_AVERAGING_FILTER)) 
1837:.\Generated_Source\PSoC4/CapSense_CSD_CSHL.c ****                             {
1838:.\Generated_Source\PSoC4/CapSense_CSD_CSHL.c ****                                 tempPos = (uint8) position;
1839:.\Generated_Source\PSoC4/CapSense_CSD_CSHL.c ****                                 position = CapSense_CSD_AveragingFilter(position,
1840:.\Generated_Source\PSoC4/CapSense_CSD_CSHL.c ****                                                                 (uint16)CapSense_CSD_posFiltersData
1841:.\Generated_Source\PSoC4/CapSense_CSD_CSHL.c ****                                                                 (uint16)CapSense_CSD_posFiltersData
1842:.\Generated_Source\PSoC4/CapSense_CSD_CSHL.c ****                                 CapSense_CSD_posFiltersData[posIndex+1u]=CapSense_CSD_posFiltersDat
1843:.\Generated_Source\PSoC4/CapSense_CSD_CSHL.c ****                                 CapSense_CSD_posFiltersData[posIndex] = tempPos;
1844:.\Generated_Source\PSoC4/CapSense_CSD_CSHL.c ****                             }
1845:.\Generated_Source\PSoC4/CapSense_CSD_CSHL.c ****                         #endif /* (0u != (CapSense_CSD_AVERAGING_FILTER & \
1846:.\Generated_Source\PSoC4/CapSense_CSD_CSHL.c ****                                *           CapSense_CSD_LINEAR_SLIDERS_POS_FILTERS_MASK))
1847:.\Generated_Source\PSoC4/CapSense_CSD_CSHL.c ****                                */
1848:.\Generated_Source\PSoC4/CapSense_CSD_CSHL.c **** 
1849:.\Generated_Source\PSoC4/CapSense_CSD_CSHL.c ****                         #if (0u != (CapSense_CSD_IIR2_FILTER & CapSense_CSD_LINEAR_SLIDERS_POS_FILT
1850:.\Generated_Source\PSoC4/CapSense_CSD_CSHL.c ****                             if (0u != (posFiltersMask & CapSense_CSD_IIR2_FILTER)) 
1851:.\Generated_Source\PSoC4/CapSense_CSD_CSHL.c ****                             {
1852:.\Generated_Source\PSoC4/CapSense_CSD_CSHL.c ****                                 position = CapSense_CSD_IIR2Filter(position,
1853:.\Generated_Source\PSoC4/CapSense_CSD_CSHL.c ****                                                                     (uint16)CapSense_CSD_posFilters
1854:.\Generated_Source\PSoC4/CapSense_CSD_CSHL.c ****                                 CapSense_CSD_posFiltersData[posIndex] = (uint8) position;
1855:.\Generated_Source\PSoC4/CapSense_CSD_CSHL.c ****                             }
1856:.\Generated_Source\PSoC4/CapSense_CSD_CSHL.c ****                         #endif /* (0u != (CapSense_CSD_IIR2_FILTER & \
1857:.\Generated_Source\PSoC4/CapSense_CSD_CSHL.c ****                                *          CapSense_CSD_LINEAR_SLIDERS_POS_FILTERS_MASK))
1858:.\Generated_Source\PSoC4/CapSense_CSD_CSHL.c ****                                */
1859:.\Generated_Source\PSoC4/CapSense_CSD_CSHL.c **** 
1860:.\Generated_Source\PSoC4/CapSense_CSD_CSHL.c ****                         #if (0u != (CapSense_CSD_IIR4_FILTER & CapSense_CSD_LINEAR_SLIDERS_POS_FILT
1861:.\Generated_Source\PSoC4/CapSense_CSD_CSHL.c ****                             if (0u != (posFiltersMask & CapSense_CSD_IIR4_FILTER))
1862:.\Generated_Source\PSoC4/CapSense_CSD_CSHL.c ****                             {
1863:.\Generated_Source\PSoC4/CapSense_CSD_CSHL.c ****                                 position = CapSense_CSD_IIR4Filter(position,
1864:.\Generated_Source\PSoC4/CapSense_CSD_CSHL.c ****                                                                     (uint16)CapSense_CSD_posFilters
1865:.\Generated_Source\PSoC4/CapSense_CSD_CSHL.c ****                                 CapSense_CSD_posFiltersData[posIndex] = (uint8) position;
1866:.\Generated_Source\PSoC4/CapSense_CSD_CSHL.c ****                             }                                
1867:.\Generated_Source\PSoC4/CapSense_CSD_CSHL.c ****                         #endif /* (0u != (CapSense_CSD_IIR4_FILTER & \
1868:.\Generated_Source\PSoC4/CapSense_CSD_CSHL.c ****                                *          CapSense_CSD_LINEAR_SLIDERS_POS_FILTERS_MASK))
1869:.\Generated_Source\PSoC4/CapSense_CSD_CSHL.c ****                                */
1870:.\Generated_Source\PSoC4/CapSense_CSD_CSHL.c **** 
1871:.\Generated_Source\PSoC4/CapSense_CSD_CSHL.c ****                         #if (0u != (CapSense_CSD_JITTER_FILTER & CapSense_CSD_LINEAR_SLIDERS_POS_FI
1872:.\Generated_Source\PSoC4/CapSense_CSD_CSHL.c ****                             if (0u != (posFiltersMask & CapSense_CSD_JITTER_FILTER))
1873:.\Generated_Source\PSoC4/CapSense_CSD_CSHL.c ****                             {
1874:.\Generated_Source\PSoC4/CapSense_CSD_CSHL.c ****                                 position = CapSense_CSD_JitterFilter(position,
1875:.\Generated_Source\PSoC4/CapSense_CSD_CSHL.c ****                                                                     (uint16)CapSense_CSD_posFilters
1876:.\Generated_Source\PSoC4/CapSense_CSD_CSHL.c ****                                 CapSense_CSD_posFiltersData[posIndex] = (uint8) position;
1877:.\Generated_Source\PSoC4/CapSense_CSD_CSHL.c ****                             }
1878:.\Generated_Source\PSoC4/CapSense_CSD_CSHL.c ****                         #endif /* (0u != (CapSense_CSD_JITTER_FILTER & \
1879:.\Generated_Source\PSoC4/CapSense_CSD_CSHL.c ****                                *           CapSense_CSD_LINEAR_SLIDERS_POS_FILTERS_MASK))
1880:.\Generated_Source\PSoC4/CapSense_CSD_CSHL.c ****                                */
1881:.\Generated_Source\PSoC4/CapSense_CSD_CSHL.c ****                     }
1882:.\Generated_Source\PSoC4/CapSense_CSD_CSHL.c ****                 }
1883:.\Generated_Source\PSoC4/CapSense_CSD_CSHL.c ****             #endif /* (0u != CapSense_CSD_LINEAR_SLIDERS_POS_FILTERS_MASK) */
1884:.\Generated_Source\PSoC4/CapSense_CSD_CSHL.c **** 
1885:.\Generated_Source\PSoC4/CapSense_CSD_CSHL.c ****         }
1886:.\Generated_Source\PSoC4/CapSense_CSD_CSHL.c ****         else
1887:.\Generated_Source\PSoC4/CapSense_CSD_CSHL.c ****         {
1888:.\Generated_Source\PSoC4/CapSense_CSD_CSHL.c ****             /* Maximum wasn't found */
1889:.\Generated_Source\PSoC4/CapSense_CSD_CSHL.c ****             position = 0xFFFFu;
1890:.\Generated_Source\PSoC4/CapSense_CSD_CSHL.c **** 
1891:.\Generated_Source\PSoC4/CapSense_CSD_CSHL.c ****             #if(0u != CapSense_CSD_LINEAR_SLIDERS_POS_FILTERS_MASK)
ARM GAS  C:\Users\Sausy\AppData\Local\Temp\ccLQi9zI.s 			page 61


1892:.\Generated_Source\PSoC4/CapSense_CSD_CSHL.c ****                 /* Reset filters */
1893:.\Generated_Source\PSoC4/CapSense_CSD_CSHL.c ****                 if(0u != (posFiltersMask & CapSense_CSD_ANY_POS_FILTER))
1894:.\Generated_Source\PSoC4/CapSense_CSD_CSHL.c ****                 {
1895:.\Generated_Source\PSoC4/CapSense_CSD_CSHL.c ****                     CapSense_CSD_posFiltersData[firstTimeIndex] = 0u;
1896:.\Generated_Source\PSoC4/CapSense_CSD_CSHL.c ****                 }
1897:.\Generated_Source\PSoC4/CapSense_CSD_CSHL.c ****             #endif /* (0u != CapSense_CSD_LINEAR_SLIDERS_POS_FILTERS_MASK) */
1898:.\Generated_Source\PSoC4/CapSense_CSD_CSHL.c ****         }
1899:.\Generated_Source\PSoC4/CapSense_CSD_CSHL.c **** 
1900:.\Generated_Source\PSoC4/CapSense_CSD_CSHL.c ****         
1901:.\Generated_Source\PSoC4/CapSense_CSD_CSHL.c ****         return (position);
1902:.\Generated_Source\PSoC4/CapSense_CSD_CSHL.c ****     }
1903:.\Generated_Source\PSoC4/CapSense_CSD_CSHL.c **** #endif /* ((CapSense_CSD_TOTAL_RADIAL_SLIDERS_COUNT > 0u) || (CapSense_CSD_TOTAL_LINEAR_SLIDERS_COU
1904:.\Generated_Source\PSoC4/CapSense_CSD_CSHL.c **** 
1905:.\Generated_Source\PSoC4/CapSense_CSD_CSHL.c **** 
1906:.\Generated_Source\PSoC4/CapSense_CSD_CSHL.c **** #if((CapSense_CSD_TOTAL_RADIAL_SLIDERS_COUNT > 0u) || (CapSense_CSD_TOTAL_LINEAR_SLIDERS_COUNT > 0u
1907:.\Generated_Source\PSoC4/CapSense_CSD_CSHL.c ****     /*******************************************************************************
1908:.\Generated_Source\PSoC4/CapSense_CSD_CSHL.c ****     * Function Name: CapSense_CSD_GetRadialCentroidPos
1909:.\Generated_Source\PSoC4/CapSense_CSD_CSHL.c ****     ********************************************************************************
1910:.\Generated_Source\PSoC4/CapSense_CSD_CSHL.c ****     *
1911:.\Generated_Source\PSoC4/CapSense_CSD_CSHL.c ****     * Summary:
1912:.\Generated_Source\PSoC4/CapSense_CSD_CSHL.c ****     *  Checks the CapSense_CSD_Signal[ ] array for a centroid within
1913:.\Generated_Source\PSoC4/CapSense_CSD_CSHL.c ****     *  a slider specified range. The centroid position is calculated according to the resolution
1914:.\Generated_Source\PSoC4/CapSense_CSD_CSHL.c ****     *  specified in the CapSense customizer. The position filters are applied to the
1915:.\Generated_Source\PSoC4/CapSense_CSD_CSHL.c ****     *  result if enabled.
1916:.\Generated_Source\PSoC4/CapSense_CSD_CSHL.c ****     *
1917:.\Generated_Source\PSoC4/CapSense_CSD_CSHL.c ****     * Parameters:
1918:.\Generated_Source\PSoC4/CapSense_CSD_CSHL.c ****     *  widget:  Widget number.
1919:.\Generated_Source\PSoC4/CapSense_CSD_CSHL.c ****     *  For every radial slider widget there are defines in this format:
1920:.\Generated_Source\PSoC4/CapSense_CSD_CSHL.c ****     *  #define CapSense_CSD_"widget_name"__RS           5
1921:.\Generated_Source\PSoC4/CapSense_CSD_CSHL.c ****     * 
1922:.\Generated_Source\PSoC4/CapSense_CSD_CSHL.c ****     * Return:
1923:.\Generated_Source\PSoC4/CapSense_CSD_CSHL.c ****     *  Returns a position value of the radial slider.
1924:.\Generated_Source\PSoC4/CapSense_CSD_CSHL.c ****     *
1925:.\Generated_Source\PSoC4/CapSense_CSD_CSHL.c **** 	* Global Variables:
1926:.\Generated_Source\PSoC4/CapSense_CSD_CSHL.c **** 	*  None.
1927:.\Generated_Source\PSoC4/CapSense_CSD_CSHL.c **** 	*
1928:.\Generated_Source\PSoC4/CapSense_CSD_CSHL.c ****     * Side Effects:
1929:.\Generated_Source\PSoC4/CapSense_CSD_CSHL.c ****     *  If any sensor within the slider widget is active, the function returns values
1930:.\Generated_Source\PSoC4/CapSense_CSD_CSHL.c ****     *  from zero to the API resolution value set in the CapSense customizer. If no
1931:.\Generated_Source\PSoC4/CapSense_CSD_CSHL.c ****     *  sensors are active, the function returns 0xFFFF.
1932:.\Generated_Source\PSoC4/CapSense_CSD_CSHL.c ****     *  There are no checks of the widget type argument provided to this function.
1933:.\Generated_Source\PSoC4/CapSense_CSD_CSHL.c ****     *  The unproper widget type provided will cause unexpected position calculations.
1934:.\Generated_Source\PSoC4/CapSense_CSD_CSHL.c ****     *
1935:.\Generated_Source\PSoC4/CapSense_CSD_CSHL.c ****     * Note:
1936:.\Generated_Source\PSoC4/CapSense_CSD_CSHL.c ****     *  If noise counts on the slider segments are greater than the noise
1937:.\Generated_Source\PSoC4/CapSense_CSD_CSHL.c ****     *  threshold, this subroutine may generate a false centroid result. The noise
1938:.\Generated_Source\PSoC4/CapSense_CSD_CSHL.c ****     *  threshold should be set carefully (high enough above the noise level) so 
1939:.\Generated_Source\PSoC4/CapSense_CSD_CSHL.c ****     *  that noise will not generate a false centroid.
1940:.\Generated_Source\PSoC4/CapSense_CSD_CSHL.c ****     *
1941:.\Generated_Source\PSoC4/CapSense_CSD_CSHL.c ****     *******************************************************************************/
1942:.\Generated_Source\PSoC4/CapSense_CSD_CSHL.c ****      uint16 CapSense_CSD_GetRadialCentroidPos(uint32 widget)
1943:.\Generated_Source\PSoC4/CapSense_CSD_CSHL.c ****     {
1944:.\Generated_Source\PSoC4/CapSense_CSD_CSHL.c ****         #if (0u != CapSense_CSD_RADIAL_SLIDERS_POS_FILTERS_MASK)
1945:.\Generated_Source\PSoC4/CapSense_CSD_CSHL.c ****             uint8 posIndex;
1946:.\Generated_Source\PSoC4/CapSense_CSD_CSHL.c ****             uint8 firstTimeIndex = CapSense_CSD_posFiltersData[widget];
1947:.\Generated_Source\PSoC4/CapSense_CSD_CSHL.c ****             uint8 posFiltersMask = CapSense_CSD_posFiltersMask[widget]; 
1948:.\Generated_Source\PSoC4/CapSense_CSD_CSHL.c ****         #endif /* (0u != CapSense_CSD_RADIAL_SLIDERS_POS_FILTERS_MASK) */
ARM GAS  C:\Users\Sausy\AppData\Local\Temp\ccLQi9zI.s 			page 62


1949:.\Generated_Source\PSoC4/CapSense_CSD_CSHL.c **** 
1950:.\Generated_Source\PSoC4/CapSense_CSD_CSHL.c ****         #if ((0u != (CapSense_CSD_MEDIAN_FILTER & CapSense_CSD_RADIAL_SLIDERS_POS_FILTERS_MASK)) ||
1951:.\Generated_Source\PSoC4/CapSense_CSD_CSHL.c ****              (0u != (CapSense_CSD_AVERAGING_FILTER & CapSense_CSD_RADIAL_SLIDERS_POS_FILTERS_MASK))
1952:.\Generated_Source\PSoC4/CapSense_CSD_CSHL.c ****             uint8 tempPos;
1953:.\Generated_Source\PSoC4/CapSense_CSD_CSHL.c ****         #endif /* ((0u != (CapSense_CSD_MEDIAN_FILTER & CapSense_CSD_RADIAL_SLIDERS_POS_FILTERS_MAS
1954:.\Generated_Source\PSoC4/CapSense_CSD_CSHL.c ****                *   (0u != (CapSense_CSD_AVERAGING_FILTER & CapSense_CSD_RADIAL_SLIDERS_POS_FILTERS_
1955:.\Generated_Source\PSoC4/CapSense_CSD_CSHL.c ****                */
1956:.\Generated_Source\PSoC4/CapSense_CSD_CSHL.c **** 
1957:.\Generated_Source\PSoC4/CapSense_CSD_CSHL.c ****         uint8 maximum;
1958:.\Generated_Source\PSoC4/CapSense_CSD_CSHL.c ****         uint16 position;
1959:.\Generated_Source\PSoC4/CapSense_CSD_CSHL.c ****         uint8 offset = CapSense_CSD_rawDataIndex[widget];
1960:.\Generated_Source\PSoC4/CapSense_CSD_CSHL.c ****         uint8 count = CapSense_CSD_numberOfSensors[widget];
1961:.\Generated_Source\PSoC4/CapSense_CSD_CSHL.c **** 
1962:.\Generated_Source\PSoC4/CapSense_CSD_CSHL.c **** 		/* Find Maximum within centroid */      
1963:.\Generated_Source\PSoC4/CapSense_CSD_CSHL.c **** 		#if (CapSense_CSD_IS_DIPLEX_SLIDER)        
1964:.\Generated_Source\PSoC4/CapSense_CSD_CSHL.c **** 			maximum = CapSense_CSD_FindMaximum(offset, count, (uint16)CapSense_CSD_fingerThreshold[widget], 
1965:.\Generated_Source\PSoC4/CapSense_CSD_CSHL.c **** 		#else
1966:.\Generated_Source\PSoC4/CapSense_CSD_CSHL.c **** 			maximum = CapSense_CSD_FindMaximum(offset, count, (uint16)CapSense_CSD_fingerThreshold[widget]);
1967:.\Generated_Source\PSoC4/CapSense_CSD_CSHL.c **** 		#endif /* (CapSense_CSD_IS_DIPLEX_SLIDER) */
1968:.\Generated_Source\PSoC4/CapSense_CSD_CSHL.c ****         
1969:.\Generated_Source\PSoC4/CapSense_CSD_CSHL.c ****         if (maximum != CapSense_CSD_MAXIMUM_CENTROID)
1970:.\Generated_Source\PSoC4/CapSense_CSD_CSHL.c ****         {
1971:.\Generated_Source\PSoC4/CapSense_CSD_CSHL.c ****             /* Calculate centroid */
1972:.\Generated_Source\PSoC4/CapSense_CSD_CSHL.c ****             position = (uint16) CapSense_CSD_CalcCentroid(maximum, 
1973:.\Generated_Source\PSoC4/CapSense_CSD_CSHL.c ****                          offset, count, CapSense_CSD_centroidMult[widget], CapSense_CSD_noiseThresh
1974:.\Generated_Source\PSoC4/CapSense_CSD_CSHL.c **** 
1975:.\Generated_Source\PSoC4/CapSense_CSD_CSHL.c ****             #if (0u != CapSense_CSD_RADIAL_SLIDERS_POS_FILTERS_MASK)
1976:.\Generated_Source\PSoC4/CapSense_CSD_CSHL.c ****                 /* Check if this Radial slider has enabled filters */
1977:.\Generated_Source\PSoC4/CapSense_CSD_CSHL.c ****                 if (0u != (posFiltersMask & CapSense_CSD_ANY_POS_FILTER))
1978:.\Generated_Source\PSoC4/CapSense_CSD_CSHL.c ****                 {
1979:.\Generated_Source\PSoC4/CapSense_CSD_CSHL.c ****                     /* Calculate position to store filters data */
1980:.\Generated_Source\PSoC4/CapSense_CSD_CSHL.c ****                     posIndex  = firstTimeIndex + 1u;
1981:.\Generated_Source\PSoC4/CapSense_CSD_CSHL.c ****                     
1982:.\Generated_Source\PSoC4/CapSense_CSD_CSHL.c ****                     if (0u == CapSense_CSD_posFiltersData[firstTimeIndex])
1983:.\Generated_Source\PSoC4/CapSense_CSD_CSHL.c ****                     {
1984:.\Generated_Source\PSoC4/CapSense_CSD_CSHL.c ****                         /* Init filters */
1985:.\Generated_Source\PSoC4/CapSense_CSD_CSHL.c ****                         CapSense_CSD_posFiltersData[posIndex] = (uint8) position;
1986:.\Generated_Source\PSoC4/CapSense_CSD_CSHL.c ****                         #if ((0u != (CapSense_CSD_MEDIAN_FILTER & \
1987:.\Generated_Source\PSoC4/CapSense_CSD_CSHL.c ****                                      CapSense_CSD_RADIAL_SLIDERS_POS_FILTERS_MASK)) || \
1988:.\Generated_Source\PSoC4/CapSense_CSD_CSHL.c ****                              (0u != (CapSense_CSD_AVERAGING_FILTER & \
1989:.\Generated_Source\PSoC4/CapSense_CSD_CSHL.c ****                                      CapSense_CSD_RADIAL_SLIDERS_POS_FILTERS_MASK)))
1990:.\Generated_Source\PSoC4/CapSense_CSD_CSHL.c **** 
1991:.\Generated_Source\PSoC4/CapSense_CSD_CSHL.c ****                             if ( (0u != (posFiltersMask & CapSense_CSD_MEDIAN_FILTER))  || 
1992:.\Generated_Source\PSoC4/CapSense_CSD_CSHL.c ****                                  (0u != (posFiltersMask & CapSense_CSD_AVERAGING_FILTER)) )
1993:.\Generated_Source\PSoC4/CapSense_CSD_CSHL.c ****                             {
1994:.\Generated_Source\PSoC4/CapSense_CSD_CSHL.c ****                                 CapSense_CSD_posFiltersData[posIndex + 1u] = (uint8) position;
1995:.\Generated_Source\PSoC4/CapSense_CSD_CSHL.c ****                             }
1996:.\Generated_Source\PSoC4/CapSense_CSD_CSHL.c ****                         #endif /* ((0u != (CapSense_CSD_MEDIAN_FILTER & \
