ARM GAS  C:\Users\Sausy\AppData\Local\Temp\ccDgpCUS.s 			page 1


   1              		.cpu cortex-m0
   2              		.fpu softvfp
   3              		.eabi_attribute 20, 1
   4              		.eabi_attribute 21, 1
   5              		.eabi_attribute 23, 3
   6              		.eabi_attribute 24, 1
   7              		.eabi_attribute 25, 1
   8              		.eabi_attribute 26, 1
   9              		.eabi_attribute 30, 6
  10              		.eabi_attribute 34, 0
  11              		.eabi_attribute 18, 4
  12              		.code	16
  13              		.file	"main.c"
  14              		.text
  15              	.Ltext0:
  16              		.cfi_sections	.debug_frame
  17              		.comm	glob_sec_counter,4,4
  18              		.comm	glob_human_counter,4,4
  19              		.section	.rodata
  20              		.align	2
  21              	.LC2:
  22 0000 1B5B481B 		.ascii	"\033[H\033[2J\000"
  22      5B324A00 
  23              		.align	2
  24              	.LC4:
  25 0008 2E2E2E2E 		.ascii	"..... FTKL Projekt Klettersteig Terminal .......\000"
  25      2E204654 
  25      4B4C2050 
  25      726F6A65 
  25      6B74204B 
  26 0039 000000   		.align	2
  27              	.LC6:
  28 003c 0A0D00   		.ascii	"\012\015\000"
  29 003f 00       		.align	2
  30              	.LC8:
  31 0040 1B5B3130 		.ascii	"\033[10C\000"
  31      4300
  32 0046 0000     		.align	2
  33              	.LC10:
  34 0048 6279204D 		.ascii	"by Michael Sausmikat\000"
  34      69636861 
  34      656C2053 
  34      6175736D 
  34      696B6174 
  35 005d 000000   		.align	2
  36              	.LC12:
  37 0060 0A0A0D1B 		.ascii	"\012\012\015\033[s\000"
  37      5B7300
  38 0067 00       		.align	2
  39              	.LC15:
  40 0068 1B5B751B 		.ascii	"\033[u\033[2B\000"
  40      5B324200 
  41              		.align	2
  42              	.LC17:
  43 0070 54696D65 		.ascii	"Time counter: \000"
  43      20636F75 
  43      6E746572 
ARM GAS  C:\Users\Sausy\AppData\Local\Temp\ccDgpCUS.s 			page 2


  43      3A2000
  44 007f 00       		.align	2
  45              	.LC19:
  46 0080 2530386C 		.ascii	"%08lu\000"
  46      7500
  47 0086 0000     		.section	.text.main,"ax",%progbits
  48              		.align	2
  49              		.global	main
  50              		.code	16
  51              		.thumb_func
  52              		.type	main, %function
  53              	main:
  54              	.LFB33:
  55              		.file 1 ".\\main.c"
   1:.\main.c      **** /* ========================================
   2:.\main.c      ****  *
   3:.\main.c      ****  * Copyright YOUR COMPANY, THE YEAR
   4:.\main.c      ****  * All Rights Reserved
   5:.\main.c      ****  * UNPUBLISHED, LICENSED SOFTWARE.
   6:.\main.c      ****  *
   7:.\main.c      ****  * CONFIDENTIAL AND PROPRIETARY INFORMATION
   8:.\main.c      ****  * WHICH IS THE PROPERTY OF your company.
   9:.\main.c      ****  *
  10:.\main.c      ****  * ========================================
  11:.\main.c      **** */
  12:.\main.c      **** #include <project.h>
  13:.\main.c      **** #include "CCR.h"
  14:.\main.c      **** #include "common.h"
  15:.\main.c      **** #include "proximity.h"
  16:.\main.c      **** 
  17:.\main.c      **** #include <stdint.h>
  18:.\main.c      **** #include <stdlib.h>
  19:.\main.c      **** #include <stdio.h>
  20:.\main.c      **** 
  21:.\main.c      **** int main()
  22:.\main.c      **** {
  56              		.loc 1 22 0
  57              		.cfi_startproc
  58 0000 80B5     		push	{r7, lr}
  59              		.cfi_def_cfa_offset 8
  60              		.cfi_offset 7, -8
  61              		.cfi_offset 14, -4
  62 0002 90B0     		sub	sp, sp, #64
  63              		.cfi_def_cfa_offset 72
  64 0004 00AF     		add	r7, sp, #0
  65              		.cfi_def_cfa_register 7
  23:.\main.c      ****     char main_foo_buffer[63];
  24:.\main.c      ****     
  25:.\main.c      ****     glob_sec_counter = 0;
  66              		.loc 1 25 0
  67 0006 2D4B     		ldr	r3, .L3
  68 0008 0022     		mov	r2, #0
  69 000a 1A60     		str	r2, [r3]
  26:.\main.c      ****     glob_human_counter = 0;
  70              		.loc 1 26 0
  71 000c 2C4B     		ldr	r3, .L3+4
  72 000e 0022     		mov	r2, #0
ARM GAS  C:\Users\Sausy\AppData\Local\Temp\ccDgpCUS.s 			page 3


  73 0010 1A60     		str	r2, [r3]
  27:.\main.c      ****     
  28:.\main.c      ****     // --- Start devices ---
  29:.\main.c      ****     Clock_Start();
  74              		.loc 1 29 0
  75 0012 FFF7FEFF 		bl	Clock_Start
  30:.\main.c      ****     PWM_Start();
  76              		.loc 1 30 0
  77 0016 FFF7FEFF 		bl	PWM_Start
  31:.\main.c      ****     CapSense_CSD_Start();
  78              		.loc 1 31 0
  79 001a FFF7FEFF 		bl	CapSense_CSD_Start
  32:.\main.c      ****     UART_Start();
  80              		.loc 1 32 0
  81 001e FFF7FEFF 		bl	UART_Start
  33:.\main.c      ****     
  34:.\main.c      ****     CyGlobalIntEnable;
  82              		.loc 1 34 0
  83              	@ 34 ".\main.c" 1
  84 0022 62B6     		CPSIE   i
  85              	@ 0 "" 2
  35:.\main.c      ****     
  36:.\main.c      ****     CapSense_init();
  86              		.loc 1 36 0
  87              		.code	16
  88 0024 FFF7FEFF 		bl	CapSense_init
  37:.\main.c      ****     
  38:.\main.c      ****     UART_UartPutString("\033[H\033[2J");
  89              		.loc 1 38 0
  90 0028 264B     		ldr	r3, .L3+8
  91 002a 181C     		mov	r0, r3
  92 002c FFF7FEFF 		bl	UART_UartPutString
  39:.\main.c      ****     UART_UartPutString("..... FTKL Projekt Klettersteig Terminal .......");
  93              		.loc 1 39 0
  94 0030 254B     		ldr	r3, .L3+12
  95 0032 181C     		mov	r0, r3
  96 0034 FFF7FEFF 		bl	UART_UartPutString
  40:.\main.c      ****     UART_UartPutString("\n\r");
  97              		.loc 1 40 0
  98 0038 244B     		ldr	r3, .L3+16
  99 003a 181C     		mov	r0, r3
 100 003c FFF7FEFF 		bl	UART_UartPutString
  41:.\main.c      ****     UART_UartPutString("\033[10C");
 101              		.loc 1 41 0
 102 0040 234B     		ldr	r3, .L3+20
 103 0042 181C     		mov	r0, r3
 104 0044 FFF7FEFF 		bl	UART_UartPutString
  42:.\main.c      ****     UART_UartPutString("by Michael Sausmikat");
 105              		.loc 1 42 0
 106 0048 224B     		ldr	r3, .L3+24
 107 004a 181C     		mov	r0, r3
 108 004c FFF7FEFF 		bl	UART_UartPutString
  43:.\main.c      ****     UART_UartPutString("\n\n\r\033[s");
 109              		.loc 1 43 0
 110 0050 214B     		ldr	r3, .L3+28
 111 0052 181C     		mov	r0, r3
 112 0054 FFF7FEFF 		bl	UART_UartPutString
ARM GAS  C:\Users\Sausy\AppData\Local\Temp\ccDgpCUS.s 			page 4


  44:.\main.c      ****     
  45:.\main.c      ****     // --- Set init for LED`s ---
  46:.\main.c      ****     Pin_GreenLED_Write(LED_OFF);
 113              		.loc 1 46 0
 114 0058 0120     		mov	r0, #1
 115 005a FFF7FEFF 		bl	Pin_GreenLED_Write
  47:.\main.c      ****     Pin_BlueLED_Write(LED_OFF);
 116              		.loc 1 47 0
 117 005e 0120     		mov	r0, #1
 118 0060 FFF7FEFF 		bl	Pin_BlueLED_Write
  48:.\main.c      ****     Pin_BlueLED_Write(LED_OFF);
 119              		.loc 1 48 0
 120 0064 0120     		mov	r0, #1
 121 0066 FFF7FEFF 		bl	Pin_BlueLED_Write
  49:.\main.c      ****     
  50:.\main.c      ****     set_bit_CCR(_ccr_count_bit_, 1);
 122              		.loc 1 50 0
 123 006a 0020     		mov	r0, #0
 124 006c 0121     		mov	r1, #1
 125 006e FFF7FEFF 		bl	set_bit_CCR
  51:.\main.c      ****     set_bit_CCR(_ccr_start_bit_, 1);
 126              		.loc 1 51 0
 127 0072 0120     		mov	r0, #1
 128 0074 0121     		mov	r1, #1
 129 0076 FFF7FEFF 		bl	set_bit_CCR
  52:.\main.c      ****     set_bit_CCR(_ccr_stop_bit_, 0);            
 130              		.loc 1 52 0
 131 007a 0220     		mov	r0, #2
 132 007c 0021     		mov	r1, #0
 133 007e FFF7FEFF 		bl	set_bit_CCR
  53:.\main.c      ****         
  54:.\main.c      ****     counter_isr_StartEx(counter_isr_Interrupt);
 134              		.loc 1 54 0
 135 0082 164B     		ldr	r3, .L3+32
 136 0084 181C     		mov	r0, r3
 137 0086 FFF7FEFF 		bl	counter_isr_StartEx
 138              	.L2:
  55:.\main.c      ****     
  56:.\main.c      ****     //bool tgl_buffer_bit = 0;
  57:.\main.c      ****     
  58:.\main.c      **** 	for(;;)
  59:.\main.c      ****     {
  60:.\main.c      ****         
  61:.\main.c      ****         UART_UartPutString("\033[u\033[2B");
 139              		.loc 1 61 0 discriminator 1
 140 008a 154B     		ldr	r3, .L3+36
 141 008c 181C     		mov	r0, r3
 142 008e FFF7FEFF 		bl	UART_UartPutString
  62:.\main.c      ****         UART_UartPutString("Time counter: ");
 143              		.loc 1 62 0 discriminator 1
 144 0092 144B     		ldr	r3, .L3+40
 145 0094 181C     		mov	r0, r3
 146 0096 FFF7FEFF 		bl	UART_UartPutString
  63:.\main.c      ****         sprintf(main_foo_buffer,"%08lu", (int32) glob_sec_counter);
 147              		.loc 1 63 0 discriminator 1
 148 009a 084B     		ldr	r3, .L3
 149 009c 1B68     		ldr	r3, [r3]
ARM GAS  C:\Users\Sausy\AppData\Local\Temp\ccDgpCUS.s 			page 5


 150 009e 391C     		mov	r1, r7
 151 00a0 114A     		ldr	r2, .L3+44
 152 00a2 081C     		mov	r0, r1
 153 00a4 111C     		mov	r1, r2
 154 00a6 1A1C     		mov	r2, r3
 155 00a8 FFF7FEFF 		bl	sprintf
  64:.\main.c      ****         /*UART_UartPutString(main_foo_buffer);
  65:.\main.c      ****         sprintf(main_foo_buffer, " %u ", (uint8_t)(glob_sec_counter >> 8));
  66:.\main.c      ****         UART_UartPutString(main_foo_buffer);
  67:.\main.c      ****         sprintf(main_foo_buffer, " %i", glob_sec_counter & 0xff);*/
  68:.\main.c      ****         UART_UartPutString(main_foo_buffer);
 156              		.loc 1 68 0 discriminator 1
 157 00ac 3B1C     		mov	r3, r7
 158 00ae 181C     		mov	r0, r3
 159 00b0 FFF7FEFF 		bl	UART_UartPutString
  69:.\main.c      **** 
  70:.\main.c      ****         CapSense_loop_func();
 160              		.loc 1 70 0 discriminator 1
 161 00b4 FFF7FEFF 		bl	CapSense_loop_func
  71:.\main.c      ****         
  72:.\main.c      ****         
  73:.\main.c      ****         //CyDelay(10000);
  74:.\main.c      ****         //set_bit_CCR(_ccr_stop_bit_, ~tgl_buffer_bit);
  75:.\main.c      ****         
  76:.\main.c      ****         
  77:.\main.c      ****        
  78:.\main.c      ****     }
 162              		.loc 1 78 0 discriminator 1
 163 00b8 E7E7     		b	.L2
 164              	.L4:
 165 00ba C046     		.align	2
 166              	.L3:
 167 00bc 00000000 		.word	glob_sec_counter
 168 00c0 00000000 		.word	glob_human_counter
 169 00c4 00000000 		.word	.LC2
 170 00c8 08000000 		.word	.LC4
 171 00cc 3C000000 		.word	.LC6
 172 00d0 40000000 		.word	.LC8
 173 00d4 48000000 		.word	.LC10
 174 00d8 60000000 		.word	.LC12
 175 00dc 00000000 		.word	counter_isr_Interrupt
 176 00e0 68000000 		.word	.LC15
 177 00e4 70000000 		.word	.LC17
 178 00e8 80000000 		.word	.LC19
 179              		.cfi_endproc
 180              	.LFE33:
 181              		.size	main, .-main
 182              		.text
 183              	.Letext0:
 184              		.file 2 "c:\\program files (x86)\\cypress\\psoc creator\\3.1\\psoc creator\\import\\gnu_cs\\arm\\4
 185              		.file 3 "c:\\program files (x86)\\cypress\\psoc creator\\3.1\\psoc creator\\import\\gnu_cs\\arm\\4
 186              		.file 4 ".\\Generated_Source\\PSoC4/cytypes.h"
 187              		.file 5 ".\\common.h"